(lp0
(F0.11444444444444445
F0.09
tp1
a(F0.23355555555555554
F0.214
tp2
a(F0.6277777777777778
F0.581
tp3
a(F0.7854444444444444
F0.764
tp4
a(F0.8414444444444444
F0.819
tp5
a(F0.8677777777777778
F0.844
tp6
a(F0.8817777777777778
F0.859
tp7
a(F0.8872222222222222
F0.865
tp8
a(F0.8921111111111111
F0.87
tp9
a(F0.896
F0.875
tp10
a(F0.8982222222222223
F0.879
tp11
a.