(lp0
(I1
I1
I1
I1
I0
I1
I1
I1
I1
I1
I0
I1
I0
I1
I0
I1
I0
I1
I0
I0
I1
I1
I0
I0
I0
I1
I1
I0
I1
I0
I1
I1
I0
I0
I1
I0
tp1
a(I1
I1
I1
I1
I0
I1
I1
I1
I1
I1
I0
I1
I0
I1
I0
I1
I0
I1
I0
I0
I1
I1
I0
I0
I0
I1
I1
I0
I1
I0
I1
I1
I0
I0
I1
I0
tp2
a(I1
I1
I0
I1
I0
I0
I1
I1
I1
I1
I1
I1
I0
I1
I1
I0
I0
I0
I1
I0
I1
I1
I0
I0
I1
I1
I0
I1
I0
I1
I1
I0
I0
I1
I0
I0
tp3
a(I0
I0
I0
I1
I1
I0
I1
I1
I1
I1
I1
I1
I1
I1
I1
I1
I0
I0
I0
I0
I0
I1
I0
I0
I0
I1
I1
I0
I1
I1
I1
I0
I0
I1
I0
I0
tp4
a(I1
I1
I1
I0
I0
I0
I1
I1
I1
I0
I0
I0
I1
I1
I1
I1
I1
I0
I0
I0
I0
I1
I0
I1
I0
I1
I1
I0
I1
I1
I1
I0
I0
I0
I1
I1
tp5
a(I1
I1
I0
I1
I1
I0
I1
I1
I1
I0
I1
I1
I0
I1
I1
I1
I0
I0
I1
I0
I0
I0
I1
I1
I1
I0
I0
I1
I1
I0
I0
I0
I1
I0
I0
I1
tp6
a(I1
I1
I1
I0
I0
I0
I1
I1
I1
I1
I1
I1
I1
I1
I1
I0
I1
I0
I1
I0
I0
I1
I0
I1
I1
I1
I1
I1
I1
I0
I0
I0
I0
I0
I0
I0
tp7
a(I1
I0
I0
I1
I0
I0
I1
I1
I1
I1
I1
I1
I1
I1
I1
I1
I0
I0
I1
I1
I0
I1
I0
I0
I0
I1
I1
I1
I1
I0
I0
I0
I0
I1
I1
I0
tp8
a(I1
I1
I1
I1
I1
I0
I1
I1
I0
I0
I1
I1
I1
I0
I0
I1
I0
I0
I1
I0
I0
I1
I0
I1
I1
I1
I1
I0
I1
I1
I1
I0
I0
I0
I1
I0
tp9
a(I1
I1
I1
I1
I0
I1
I1
I1
I1
I1
I0
I1
I0
I1
I0
I1
I0
I1
I0
I0
I1
I1
I0
I0
I0
I1
I1
I0
I1
I0
I1
I1
I0
I0
I1
I0
tp10
a(I0
I0
I0
I1
I1
I0
I1
I1
I1
I1
I1
I1
I1
I1
I1
I1
I0
I0
I0
I0
I0
I1
I0
I0
I0
I1
I1
I0
I1
I1
I1
I0
I0
I1
I0
I0
tp11
a(I1
I1
I1
I0
I0
I0
I1
I1
I1
I1
I1
I1
I1
I1
I1
I0
I1
I0
I1
I0
I0
I1
I0
I1
I1
I1
I1
I1
I1
I0
I0
I0
I0
I0
I0
I0
tp12
a(I1
I0
I0
I1
I0
I0
I0
I1
I1
I1
I1
I1
I1
I1
I1
I1
I0
I0
I1
I0
I0
I0
I0
I0
I0
I0
I1
I1
I1
I0
I1
I0
I0
I1
I1
I1
tp13
a(I1
I1
I0
I1
I1
I0
I1
I1
I1
I0
I1
I1
I0
I1
I1
I1
I0
I0
I1
I0
I0
I0
I1
I1
I1
I0
I0
I1
I1
I0
I0
I0
I1
I0
I0
I1
tp14
a(I1
I0
I1
I1
I1
I0
I1
I1
I1
I0
I0
I1
I1
I0
I1
I0
I0
I0
I0
I0
I0
I1
I0
I0
I1
I0
I0
I1
I0
I1
I1
I0
I0
I1
I0
I0
tp15
a(I0
I1
I1
I1
I1
I0
I1
I1
I1
I1
I0
I0
I0
I0
I1
I1
I1
I1
I1
I0
I0
I1
I0
I1
I1
I1
I0
I1
I0
I1
I1
I0
I0
I0
I0
I0
tp16
a(I1
I1
I0
I1
I0
I0
I1
I1
I1
I0
I0
I0
I1
I1
I1
I1
I1
I0
I1
I0
I0
I0
I0
I0
I0
I0
I1
I0
I1
I0
I0
I0
I0
I1
I1
I0
tp17
a(I1
I1
I1
I1
I0
I1
I1
I1
I1
I1
I1
I0
I1
I1
I1
I1
I1
I0
I1
I0
I0
I1
I0
I1
I0
I1
I0
I1
I0
I1
I1
I1
I1
I1
I0
I1
tp18
a(I1
I1
I1
I1
I1
I0
I0
I1
I1
I0
I1
I1
I1
I1
I1
I0
I0
I0
I1
I0
I0
I1
I0
I0
I0
I1
I1
I1
I1
I0
I0
I0
I0
I0
I0
I0
tp19
a(I1
I1
I0
I1
I0
I0
I1
I1
I1
I0
I0
I0
I1
I1
I1
I1
I1
I0
I1
I0
I0
I0
I0
I0
I0
I0
I1
I0
I1
I0
I0
I0
I0
I1
I1
I0
tp20
a(I1
I0
I0
I1
I0
I0
I1
I1
I1
I1
I1
I1
I1
I1
I1
I1
I0
I0
I1
I1
I0
I1
I0
I0
I0
I1
I1
I1
I1
I0
I0
I0
I0
I1
I1
I0
tp21
a(I1
I1
I1
I1
I0
I1
I1
I1
I1
I1
I0
I1
I0
I1
I0
I1
I0
I1
I0
I0
I1
I1
I0
I0
I0
I1
I1
I0
I1
I0
I1
I1
I0
I0
I1
I0
tp22
a(I1
I1
I0
I1
I0
I0
I1
I1
I1
I0
I0
I0
I1
I1
I1
I1
I1
I0
I1
I0
I0
I0
I0
I0
I0
I0
I1
I0
I1
I0
I0
I0
I0
I1
I1
I0
tp23
a(I1
I1
I1
I1
I1
I0
I0
I1
I1
I0
I1
I1
I1
I1
I1
I0
I0
I0
I1
I0
I0
I1
I0
I0
I0
I1
I1
I1
I1
I0
I0
I0
I0
I0
I0
I0
tp24
a(I1
I1
I1
I1
I0
I1
I1
I1
I1
I1
I0
I1
I0
I1
I0
I1
I0
I1
I0
I0
I1
I1
I0
I0
I0
I1
I1
I0
I1
I0
I1
I1
I0
I0
I1
I0
tp25
a(I1
I1
I0
I1
I0
I0
I1
I1
I1
I1
I1
I1
I0
I1
I1
I0
I0
I0
I1
I0
I1
I1
I0
I0
I1
I1
I0
I1
I0
I1
I1
I0
I0
I1
I0
I0
tp26
a(I0
I1
I1
I1
I0
I0
I1
I1
I1
I0
I0
I1
I1
I1
I1
I0
I0
I0
I0
I0
I0
I1
I0
I0
I0
I1
I1
I1
I0
I1
I0
I1
I0
I1
I0
I0
tp27
a(I0
I1
I1
I1
I0
I0
I1
I1
I1
I0
I1
I1
I0
I0
I1
I0
I0
I0
I1
I0
I0
I1
I0
I0
I1
I1
I1
I0
I1
I0
I0
I1
I0
I1
I0
I0
tp28
a(I1
I1
I1
I1
I0
I0
I1
I1
I1
I1
I1
I0
I1
I0
I1
I1
I1
I0
I1
I1
I1
I1
I0
I1
I1
I1
I1
I1
I1
I1
I0
I1
I0
I0
I0
I1
tp29
a(I1
I1
I1
I1
I0
I1
I1
I1
I1
I0
I0
I1
I1
I1
I1
I1
I0
I0
I0
I0
I1
I1
I0
I0
I0
I1
I1
I0
I0
I0
I1
I1
I1
I0
I1
I0
tp30
a(I1
I1
I1
I1
I0
I0
I0
I1
I1
I1
I1
I1
I0
I1
I1
I0
I0
I0
I1
I0
I0
I0
I1
I0
I1
I0
I0
I1
I1
I1
I1
I0
I0
I1
I0
I0
tp31
a(I1
I1
I1
I1
I0
I0
I1
I1
I1
I0
I0
I1
I0
I1
I0
I1
I1
I0
I0
I0
I0
I1
I0
I0
I0
I0
I1
I1
I0
I1
I0
I0
I1
I1
I1
I1
tp32
a(I1
I1
I1
I1
I0
I0
I1
I0
I1
I1
I0
I1
I1
I1
I1
I1
I0
I0
I1
I0
I0
I1
I0
I1
I1
I1
I1
I1
I1
I1
I0
I0
I0
I1
I0
I1
tp33
a(I0
I1
I1
I1
I0
I0
I1
I0
I1
I0
I1
I1
I1
I0
I1
I1
I1
I0
I0
I0
I1
I1
I0
I0
I1
I1
I1
I1
I1
I0
I1
I0
I0
I1
I1
I1
tp34
a(I1
I1
I0
I0
I0
I0
I1
I1
I0
I0
I0
I1
I1
I1
I1
I1
I0
I0
I1
I1
I1
I1
I0
I0
I1
I1
I1
I1
I1
I1
I1
I1
I0
I1
I1
I1
tp35
a(I0
I1
I1
I1
I0
I0
I1
I0
I1
I0
I1
I1
I1
I0
I1
I1
I1
I0
I0
I0
I1
I1
I0
I0
I1
I1
I1
I1
I1
I0
I1
I0
I0
I1
I1
I1
tp36
a(I1
I1
I1
I1
I0
I0
I0
I0
I1
I1
I1
I1
I1
I1
I1
I0
I1
I0
I1
I1
I1
I1
I1
I1
I1
I1
I1
I1
I1
I1
I1
I1
I0
I1
I1
I0
tp37
a(I1
I1
I0
I1
I0
I1
I1
I0
I1
I1
I1
I1
I0
I0
I1
I1
I1
I0
I1
I0
I1
I1
I0
I0
I0
I0
I0
I0
I1
I0
I1
I1
I0
I1
I0
I1
tp38
a(I1
I1
I1
I0
I0
I0
I1
I1
I1
I0
I0
I0
I0
I1
I1
I0
I0
I0
I1
I0
I0
I0
I0
I0
I1
I1
I1
I0
I1
I0
I1
I0
I0
I0
I1
I0
tp39
a(I1
I1
I0
I0
I0
I0
I1
I1
I0
I0
I0
I1
I1
I1
I1
I1
I0
I0
I1
I1
I1
I1
I0
I0
I1
I1
I1
I1
I1
I1
I1
I1
I0
I1
I1
I1
tp40
a(I1
I1
I1
I1
I0
I0
I1
I0
I1
I1
I1
I1
I0
I1
I0
I1
I1
I0
I0
I0
I0
I1
I1
I0
I0
I0
I1
I0
I0
I0
I1
I0
I1
I0
I0
I0
tp41
a(I1
I0
I0
I1
I0
I0
I1
I1
I1
I0
I0
I1
I1
I1
I1
I0
I0
I0
I1
I0
I0
I0
I1
I1
I1
I1
I0
I0
I1
I1
I1
I1
I0
I1
I1
I0
tp42
a(I0
I1
I1
I1
I0
I0
I1
I0
I1
I0
I1
I1
I1
I0
I1
I1
I1
I0
I0
I0
I1
I1
I0
I0
I1
I1
I1
I1
I1
I0
I1
I0
I0
I1
I1
I1
tp43
a(I1
I1
I1
I1
I0
I0
I1
I1
I1
I0
I1
I1
I1
I0
I1
I0
I0
I0
I0
I0
I0
I1
I1
I0
I1
I1
I1
I0
I0
I0
I0
I1
I0
I1
I0
I0
tp44
a(I1
I0
I1
I1
I0
I0
I1
I1
I0
I0
I1
I1
I1
I1
I1
I1
I1
I0
I1
I0
I0
I1
I0
I0
I1
I1
I1
I1
I1
I0
I0
I0
I0
I1
I0
I0
tp45
a(I1
I1
I1
I1
I0
I0
I0
I0
I1
I1
I1
I1
I1
I1
I1
I0
I1
I0
I1
I1
I1
I1
I1
I1
I1
I1
I1
I1
I1
I1
I1
I1
I0
I1
I1
I0
tp46
a(I1
I1
I0
I1
I0
I1
I1
I0
I1
I1
I1
I1
I0
I0
I1
I1
I1
I0
I1
I0
I1
I1
I0
I0
I0
I0
I0
I0
I1
I0
I1
I1
I0
I1
I0
I1
tp47
a(I0
I1
I1
I1
I0
I0
I1
I0
I1
I0
I1
I1
I1
I0
I1
I1
I1
I0
I0
I0
I1
I1
I0
I0
I1
I1
I1
I1
I1
I0
I1
I0
I0
I1
I1
I1
tp48
a(I1
I1
I1
I1
I0
I0
I0
I0
I1
I1
I1
I1
I1
I1
I1
I0
I1
I0
I1
I1
I1
I1
I1
I1
I1
I1
I1
I1
I1
I1
I1
I1
I0
I1
I1
I0
tp49
a(I1
I1
I0
I1
I0
I1
I1
I0
I1
I1
I1
I1
I0
I0
I1
I1
I1
I0
I1
I0
I1
I1
I0
I0
I0
I0
I0
I0
I1
I0
I1
I1
I0
I1
I0
I1
tp50
a(I1
I1
I1
I0
I0
I0
I1
I0
I1
I1
I1
I1
I1
I1
I0
I1
I1
I1
I1
I0
I0
I1
I0
I0
I0
I0
I0
I1
I1
I1
I0
I1
I0
I1
I1
I1
tp51
a(I0
I1
I1
I1
I0
I0
I1
I0
I1
I0
I1
I1
I1
I0
I1
I1
I1
I0
I0
I0
I1
I1
I0
I0
I1
I1
I1
I1
I1
I0
I1
I0
I0
I1
I1
I1
tp52
a(I1
I1
I1
I1
I0
I0
I1
I1
I1
I0
I1
I1
I1
I0
I1
I0
I0
I0
I0
I0
I0
I1
I1
I0
I1
I1
I1
I0
I0
I0
I0
I1
I0
I1
I0
I0
tp53
a(I1
I1
I0
I0
I0
I0
I1
I1
I0
I0
I0
I1
I1
I1
I1
I1
I0
I0
I1
I1
I1
I1
I0
I0
I1
I1
I1
I1
I1
I1
I1
I1
I0
I1
I1
I1
tp54
a(I1
I1
I0
I0
I0
I0
I0
I1
I1
I0
I0
I1
I1
I1
I0
I0
I0
I0
I1
I0
I1
I1
I0
I0
I1
I0
I0
I0
I1
I0
I0
I0
I0
I1
I0
I0
tp55
a(I0
I1
I0
I1
I0
I0
I1
I1
I1
I0
I1
I0
I1
I1
I1
I1
I0
I0
I1
I0
I0
I0
I0
I0
I1
I1
I1
I0
I0
I1
I1
I1
I0
I0
I0
I1
tp56
a(I1
I0
I1
I1
I1
I1
I0
I1
I1
I0
I0
I0
I1
I1
I0
I0
I0
I0
I0
I0
I0
I1
I0
I0
I1
I1
I0
I0
I0
I0
I1
I1
I1
I0
I0
I0
tp57
a(I1
I1
I1
I1
I0
I0
I1
I1
I1
I1
I1
I0
I1
I1
I1
I1
I0
I0
I1
I0
I0
I1
I0
I0
I0
I0
I1
I0
I1
I0
I0
I0
I0
I1
I0
I0
tp58
a(I0
I1
I1
I1
I0
I0
I1
I0
I1
I1
I1
I1
I1
I1
I1
I0
I0
I0
I1
I1
I1
I1
I0
I1
I0
I1
I0
I0
I1
I1
I1
I0
I0
I1
I1
I0
tp59
a(I1
I1
I0
I1
I1
I0
I1
I1
I0
I1
I1
I1
I1
I1
I1
I1
I0
I0
I1
I0
I1
I1
I0
I0
I0
I0
I0
I1
I0
I1
I0
I0
I1
I1
I0
I1
tp60
a(I1
I1
I0
I0
I0
I0
I1
I1
I1
I0
I1
I1
I1
I1
I1
I1
I0
I0
I1
I0
I0
I1
I0
I1
I0
I1
I1
I1
I0
I1
I0
I0
I0
I1
I0
I0
tp61
a(I1
I1
I1
I0
I0
I0
I0
I1
I1
I0
I1
I0
I1
I1
I1
I0
I0
I0
I1
I0
I0
I1
I0
I1
I0
I1
I1
I0
I1
I1
I0
I0
I0
I1
I1
I0
tp62
a(I1
I1
I1
I1
I0
I0
I0
I1
I0
I0
I1
I1
I1
I1
I1
I1
I0
I1
I1
I0
I0
I1
I0
I0
I1
I1
I1
I1
I0
I0
I0
I0
I0
I1
I0
I0
tp63
a(I1
I1
I1
I1
I0
I0
I1
I1
I1
I1
I1
I0
I0
I1
I0
I0
I0
I1
I1
I0
I0
I1
I0
I1
I1
I1
I1
I1
I1
I0
I0
I0
I0
I1
I0
I0
tp64
a(I1
I1
I1
I1
I0
I0
I1
I1
I1
I1
I0
I1
I0
I1
I1
I1
I0
I1
I1
I0
I0
I1
I0
I0
I1
I1
I1
I0
I1
I0
I1
I0
I0
I0
I0
I0
tp65
a(I1
I1
I1
I1
I1
I1
I1
I1
I1
I1
I1
I1
I1
I1
I0
I0
I0
I0
I1
I0
I0
I1
I1
I1
I1
I0
I0
I0
I1
I0
I1
I0
I0
I1
I0
I0
tp66
a(I1
I1
I0
I0
I0
I1
I1
I0
I1
I1
I1
I1
I0
I1
I1
I1
I0
I0
I0
I1
I0
I1
I1
I0
I0
I0
I1
I1
I1
I0
I0
I1
I0
I1
I1
I0
tp67
a(I1
I1
I0
I0
I0
I0
I1
I0
I1
I0
I0
I0
I0
I1
I0
I0
I0
I0
I1
I0
I1
I0
I1
I0
I0
I0
I1
I1
I0
I1
I1
I1
I0
I1
I0
I0
tp68
a(I1
I1
I0
I0
I0
I1
I0
I1
I1
I0
I1
I0
I1
I1
I1
I1
I0
I1
I0
I0
I0
I1
I0
I0
I0
I1
I1
I0
I0
I1
I1
I1
I1
I1
I0
I0
tp69
a(I0
I1
I1
I1
I0
I1
I1
I1
I0
I0
I0
I1
I1
I1
I0
I1
I1
I1
I0
I0
I0
I1
I1
I1
I0
I1
I1
I1
I1
I0
I0
I0
I0
I1
I1
I0
tp70
a(I1
I0
I1
I1
I1
I1
I0
I1
I1
I0
I0
I0
I1
I1
I0
I0
I0
I0
I0
I0
I0
I1
I0
I0
I1
I1
I0
I0
I0
I0
I1
I1
I1
I0
I0
I0
tp71
a(I1
I1
I1
I1
I0
I0
I1
I1
I1
I1
I1
I0
I1
I1
I1
I1
I0
I0
I1
I0
I0
I1
I0
I0
I0
I0
I1
I0
I1
I0
I0
I0
I0
I1
I0
I0
tp72
a(I1
I1
I1
I1
I0
I0
I1
I1
I0
I1
I1
I0
I1
I0
I0
I0
I0
I1
I1
I1
I1
I1
I0
I1
I1
I0
I1
I1
I0
I1
I0
I1
I1
I1
I0
I0
tp73
a(I1
I1
I1
I1
I0
I0
I1
I1
I1
I1
I1
I0
I1
I1
I1
I1
I0
I0
I1
I0
I0
I1
I0
I0
I0
I0
I0
I0
I1
I1
I1
I0
I0
I1
I0
I0
tp74
a(I1
I0
I1
I1
I1
I1
I1
I1
I1
I0
I1
I1
I1
I1
I1
I1
I0
I0
I1
I1
I1
I1
I1
I0
I1
I1
I1
I1
I0
I0
I1
I0
I0
I1
I0
I0
tp75
a(I0
I1
I1
I0
I0
I0
I0
I1
I0
I1
I1
I1
I1
I1
I1
I0
I0
I0
I0
I0
I0
I1
I0
I0
I1
I1
I1
I1
I0
I0
I1
I0
I0
I1
I0
I0
tp76
a(I1
I1
I1
I0
I0
I0
I1
I1
I1
I1
I1
I0
I1
I1
I1
I1
I0
I0
I1
I0
I0
I1
I0
I1
I1
I1
I1
I1
I1
I1
I1
I0
I0
I1
I0
I0
tp77
a(I1
I1
I1
I1
I0
I0
I1
I1
I1
I1
I1
I0
I0
I1
I0
I0
I0
I1
I1
I0
I0
I1
I0
I1
I1
I1
I1
I1
I1
I0
I0
I0
I0
I1
I0
I0
tp78
a(I1
I1
I1
I1
I0
I0
I1
I0
I1
I1
I1
I1
I1
I1
I1
I1
I0
I0
I1
I0
I0
I1
I1
I0
I1
I1
I0
I1
I1
I0
I1
I0
I0
I0
I1
I0
tp79
a(I1
I1
I0
I1
I0
I0
I1
I1
I1
I1
I1
I1
I1
I1
I1
I0
I0
I0
I1
I0
I0
I1
I0
I0
I1
I1
I1
I1
I0
I0
I1
I1
I0
I1
I0
I0
tp80
a(I1
I1
I1
I1
I0
I0
I1
I1
I1
I0
I1
I1
I0
I0
I1
I1
I0
I0
I1
I0
I0
I1
I0
I0
I0
I1
I1
I1
I1
I0
I0
I0
I0
I0
I0
I0
tp81
a(I1
I1
I1
I1
I0
I0
I0
I1
I1
I1
I1
I1
I1
I1
I1
I1
I0
I0
I1
I0
I0
I1
I1
I0
I1
I1
I1
I0
I1
I0
I1
I0
I0
I1
I0
I0
tp82
a(I1
I1
I1
I0
I0
I0
I1
I1
I1
I1
I1
I1
I0
I1
I1
I0
I0
I0
I1
I1
I1
I0
I1
I1
I0
I1
I1
I0
I0
I1
I1
I0
I0
I0
I0
I0
tp83
a(I1
I1
I1
I1
I0
I0
I1
I1
I1
I0
I0
I1
I0
I1
I1
I1
I1
I0
I1
I0
I0
I0
I1
I0
I0
I1
I1
I1
I0
I0
I1
I0
I0
I1
I0
I0
tp84
a(I0
I1
I0
I1
I0
I0
I1
I1
I1
I0
I1
I0
I1
I1
I1
I1
I0
I0
I1
I0
I0
I0
I0
I0
I1
I1
I1
I0
I0
I1
I1
I1
I0
I0
I0
I1
tp85
a(I1
I1
I0
I0
I0
I0
I0
I1
I1
I0
I0
I1
I1
I1
I0
I0
I0
I0
I1
I0
I1
I1
I0
I0
I1
I0
I0
I0
I1
I0
I0
I0
I0
I1
I0
I0
tp86
a(I1
I0
I1
I1
I1
I1
I0
I1
I1
I0
I0
I0
I1
I1
I0
I0
I0
I0
I0
I0
I0
I1
I0
I0
I1
I1
I0
I0
I0
I0
I1
I1
I1
I0
I0
I0
tp87
a(I1
I1
I1
I1
I0
I0
I1
I1
I1
I1
I1
I0
I1
I1
I1
I1
I0
I0
I1
I0
I0
I1
I0
I0
I0
I0
I1
I0
I1
I0
I0
I0
I0
I1
I0
I0
tp88
a(I0
I1
I1
I1
I0
I0
I1
I0
I1
I1
I1
I1
I1
I1
I1
I0
I0
I0
I1
I1
I1
I1
I0
I1
I0
I1
I0
I0
I1
I1
I1
I0
I0
I1
I1
I0
tp89
a(I1
I1
I1
I1
I0
I0
I1
I1
I1
I1
I1
I0
I1
I1
I1
I1
I0
I0
I1
I0
I0
I1
I0
I0
I0
I0
I0
I0
I1
I1
I1
I0
I0
I1
I0
I0
tp90
a(I1
I1
I1
I0
I0
I0
I1
I1
I1
I1
I1
I1
I1
I1
I1
I0
I0
I1
I1
I0
I0
I1
I0
I0
I1
I1
I1
I1
I1
I0
I1
I0
I0
I1
I0
I0
tp91
a(I1
I1
I1
I1
I0
I0
I1
I1
I1
I0
I1
I1
I0
I0
I1
I1
I0
I0
I1
I0
I0
I1
I0
I0
I0
I1
I1
I1
I1
I0
I0
I0
I0
I0
I0
I0
tp92
a(I1
I1
I0
I1
I0
I0
I1
I1
I1
I1
I1
I1
I1
I1
I1
I0
I0
I0
I1
I0
I0
I1
I0
I0
I1
I1
I1
I1
I0
I0
I1
I1
I0
I1
I0
I0
tp93
a(I1
I1
I1
I1
I0
I0
I1
I1
I1
I1
I0
I1
I0
I1
I1
I1
I0
I1
I1
I0
I0
I1
I0
I0
I1
I1
I1
I0
I1
I0
I1
I0
I0
I0
I0
I0
tp94
a(I1
I1
I1
I1
I0
I0
I0
I1
I1
I1
I1
I1
I1
I1
I1
I1
I0
I0
I1
I0
I0
I1
I1
I0
I1
I1
I1
I0
I1
I0
I1
I0
I0
I1
I0
I0
tp95
a(I0
I1
I1
I1
I0
I1
I1
I1
I0
I0
I0
I1
I1
I1
I0
I1
I1
I1
I0
I0
I0
I1
I1
I1
I0
I1
I1
I1
I1
I0
I0
I0
I0
I1
I1
I0
tp96
a(I0
I1
I1
I1
I0
I1
I1
I1
I0
I0
I0
I1
I1
I1
I0
I1
I1
I1
I0
I0
I0
I1
I1
I1
I0
I1
I1
I1
I1
I0
I0
I0
I0
I1
I1
I0
tp97
a(I1
I1
I1
I0
I0
I0
I1
I1
I1
I0
I0
I1
I1
I1
I1
I0
I0
I0
I1
I1
I0
I1
I0
I1
I0
I0
I0
I0
I1
I1
I1
I0
I0
I0
I1
I0
tp98
a(I1
I1
I0
I1
I0
I0
I1
I1
I1
I0
I1
I1
I1
I1
I1
I1
I0
I0
I1
I0
I0
I1
I1
I0
I0
I1
I1
I1
I1
I1
I1
I0
I0
I1
I0
I1
tp99
a(I1
I1
I1
I1
I1
I1
I1
I1
I1
I0
I0
I0
I1
I0
I1
I1
I0
I1
I1
I0
I0
I1
I0
I0
I0
I1
I1
I0
I0
I0
I1
I0
I0
I1
I0
I0
tp100
a(I1
I1
I1
I1
I0
I0
I1
I1
I1
I1
I1
I1
I0
I1
I1
I1
I0
I0
I0
I0
I1
I0
I0
I1
I0
I1
I1
I0
I0
I1
I0
I1
I0
I1
I0
I0
tp101
a(I1
I1
I1
I1
I1
I1
I1
I1
I1
I1
I1
I1
I1
I1
I0
I0
I0
I0
I1
I0
I0
I1
I1
I1
I1
I0
I0
I0
I1
I0
I1
I0
I0
I1
I0
I0
tp102
a(I0
I1
I1
I1
I0
I1
I1
I1
I0
I0
I0
I1
I1
I1
I0
I1
I1
I1
I0
I0
I0
I1
I1
I1
I0
I1
I1
I1
I1
I0
I0
I0
I0
I1
I1
I0
tp103
a(I1
I1
I1
I1
I0
I0
I1
I1
I1
I1
I1
I0
I1
I1
I1
I1
I0
I0
I1
I0
I0
I1
I0
I0
I0
I0
I1
I0
I1
I0
I0
I0
I0
I1
I0
I0
tp104
a(I1
I1
I1
I1
I0
I0
I1
I0
I1
I1
I1
I1
I1
I1
I1
I1
I0
I0
I1
I0
I0
I1
I1
I0
I1
I1
I0
I1
I1
I0
I1
I0
I0
I0
I1
I0
tp105
a(I1
I1
I1
I1
I0
I0
I1
I1
I1
I1
I1
I0
I1
I1
I1
I1
I0
I0
I1
I0
I0
I1
I0
I0
I0
I0
I0
I0
I1
I1
I1
I0
I0
I1
I0
I0
tp106
a(I1
I1
I1
I0
I0
I0
I0
I1
I1
I0
I1
I0
I1
I1
I1
I0
I0
I0
I1
I0
I0
I1
I0
I1
I0
I1
I1
I0
I1
I1
I0
I0
I0
I1
I1
I0
tp107
a(I1
I1
I1
I0
I0
I0
I1
I1
I1
I1
I1
I1
I1
I1
I1
I0
I0
I1
I1
I0
I0
I1
I0
I0
I1
I1
I1
I1
I1
I0
I1
I0
I0
I1
I0
I0
tp108
a(I1
I1
I0
I1
I1
I0
I1
I1
I1
I0
I1
I0
I1
I1
I1
I1
I0
I0
I0
I0
I1
I1
I0
I1
I1
I1
I1
I1
I0
I1
I0
I0
I0
I0
I0
I0
tp109
a(I1
I0
I1
I0
I0
I1
I1
I1
I1
I1
I1
I1
I1
I1
I0
I0
I0
I0
I0
I1
I0
I1
I1
I0
I1
I1
I1
I0
I0
I0
I0
I0
I0
I1
I0
I0
tp110
a(I1
I1
I1
I1
I0
I0
I0
I1
I1
I0
I1
I1
I1
I0
I1
I1
I0
I0
I1
I0
I0
I1
I0
I0
I1
I1
I1
I1
I1
I1
I1
I0
I0
I1
I1
I0
tp111
a(I1
I0
I0
I1
I0
I0
I1
I0
I1
I1
I1
I1
I1
I1
I1
I1
I0
I0
I1
I0
I1
I1
I1
I0
I1
I0
I0
I1
I1
I0
I1
I1
I0
I1
I1
I0
tp112
a(I1
I1
I1
I1
I1
I0
I0
I1
I0
I1
I1
I1
I1
I0
I1
I1
I0
I0
I0
I0
I0
I1
I0
I0
I1
I1
I1
I1
I1
I0
I0
I0
I0
I1
I0
I0
tp113
a(I1
I1
I0
I1
I0
I1
I1
I1
I1
I1
I1
I1
I1
I0
I1
I1
I0
I0
I0
I0
I0
I1
I0
I1
I1
I1
I1
I1
I1
I1
I1
I0
I0
I1
I1
I0
tp114
a(I1
I1
I0
I1
I0
I1
I1
I1
I1
I1
I1
I1
I1
I0
I1
I1
I0
I0
I0
I0
I0
I1
I0
I1
I1
I1
I1
I1
I1
I1
I1
I0
I0
I1
I1
I0
tp115
a(I1
I1
I1
I1
I1
I0
I0
I1
I0
I1
I1
I1
I1
I0
I1
I1
I0
I0
I0
I0
I0
I1
I0
I0
I1
I1
I1
I1
I1
I0
I0
I0
I0
I1
I0
I0
tp116
a(I1
I0
I1
I0
I0
I1
I1
I1
I1
I1
I1
I1
I1
I1
I0
I0
I0
I0
I0
I1
I0
I1
I1
I0
I1
I1
I1
I0
I0
I0
I0
I0
I0
I1
I0
I0
tp117
a(I0
I1
I0
I1
I0
I0
I0
I1
I1
I0
I1
I1
I0
I0
I1
I1
I1
I1
I1
I0
I0
I0
I0
I0
I1
I1
I1
I0
I0
I0
I1
I1
I0
I0
I0
I0
tp118
a(I1
I1
I1
I1
I0
I1
I1
I1
I1
I0
I1
I1
I1
I1
I1
I1
I1
I0
I1
I0
I0
I1
I0
I0
I1
I1
I1
I0
I0
I0
I1
I1
I0
I1
I0
I0
tp119
a(I1
I1
I1
I1
I1
I0
I1
I1
I1
I0
I0
I1
I0
I1
I1
I0
I1
I0
I1
I0
I0
I1
I0
I1
I1
I1
I1
I0
I1
I1
I0
I0
I0
I0
I0
I0
tp120
a(I1
I1
I0
I1
I0
I1
I1
I0
I1
I0
I1
I0
I1
I1
I1
I1
I0
I0
I0
I0
I0
I0
I0
I0
I1
I1
I1
I0
I1
I1
I0
I0
I0
I1
I0
I0
tp121
a(I1
I1
I0
I1
I1
I0
I1
I1
I1
I0
I1
I1
I1
I1
I1
I1
I0
I0
I1
I0
I1
I1
I0
I0
I1
I1
I1
I0
I1
I1
I0
I0
I0
I1
I1
I0
tp122
a(I1
I1
I0
I1
I0
I0
I1
I0
I1
I0
I0
I1
I0
I1
I0
I1
I0
I0
I1
I1
I1
I1
I0
I1
I0
I1
I1
I0
I0
I1
I0
I0
I0
I1
I0
I0
tp123
a(I0
I1
I1
I1
I0
I0
I1
I0
I1
I1
I0
I1
I1
I1
I1
I0
I0
I0
I1
I0
I1
I1
I0
I0
I1
I1
I1
I1
I1
I0
I1
I0
I0
I1
I0
I0
tp124
a(I1
I1
I0
I1
I0
I0
I1
I0
I1
I1
I1
I1
I1
I0
I1
I1
I0
I0
I0
I0
I0
I1
I0
I0
I0
I1
I1
I1
I0
I0
I0
I0
I0
I1
I1
I0
tp125
a(I1
I1
I1
I1
I0
I0
I1
I1
I1
I1
I1
I1
I1
I1
I0
I1
I0
I0
I1
I0
I0
I0
I0
I0
I0
I1
I1
I1
I0
I0
I1
I1
I0
I1
I0
I0
tp126
a(I1
I1
I0
I1
I1
I0
I1
I1
I1
I0
I1
I0
I1
I1
I1
I1
I0
I0
I0
I0
I1
I1
I0
I1
I1
I1
I1
I1
I0
I1
I0
I0
I0
I0
I0
I0
tp127
a(I1
I1
I1
I1
I0
I0
I0
I1
I1
I1
I1
I1
I1
I1
I1
I1
I1
I0
I1
I0
I0
I1
I0
I1
I0
I0
I1
I0
I1
I1
I0
I0
I0
I0
I1
I0
tp128
a(I1
I0
I1
I1
I0
I0
I1
I1
I0
I1
I1
I1
I1
I1
I1
I0
I1
I0
I1
I0
I0
I1
I0
I0
I0
I0
I0
I0
I1
I0
I0
I0
I0
I0
I0
I0
tp129
a(I1
I1
I1
I0
I0
I0
I1
I1
I0
I0
I1
I1
I1
I0
I1
I1
I1
I0
I1
I1
I1
I1
I0
I0
I1
I1
I1
I1
I1
I0
I1
I0
I0
I1
I0
I0
tp130
a(I1
I0
I0
I1
I0
I0
I1
I0
I1
I1
I1
I1
I1
I1
I1
I1
I0
I0
I1
I0
I1
I1
I1
I0
I1
I0
I0
I1
I1
I0
I1
I1
I0
I1
I1
I0
tp131
a(I0
I1
I1
I1
I1
I1
I1
I1
I1
I1
I1
I1
I1
I1
I1
I1
I0
I0
I0
I1
I1
I0
I0
I1
I1
I1
I1
I0
I0
I1
I1
I0
I0
I1
I0
I0
tp132
a(I0
I1
I1
I1
I0
I0
I1
I1
I1
I1
I1
I1
I1
I1
I1
I1
I1
I0
I0
I0
I1
I0
I0
I0
I1
I1
I0
I0
I1
I0
I0
I0
I0
I1
I1
I0
tp133
a(I1
I0
I1
I0
I0
I0
I0
I1
I1
I0
I1
I1
I0
I0
I1
I0
I0
I0
I1
I0
I0
I0
I0
I0
I1
I1
I1
I0
I1
I0
I0
I0
I0
I0
I0
I0
tp134
a(I1
I1
I1
I1
I0
I1
I1
I1
I1
I0
I1
I1
I1
I1
I1
I1
I1
I0
I1
I0
I0
I1
I0
I0
I1
I1
I1
I0
I0
I0
I1
I1
I0
I1
I0
I0
tp135
a(I1
I0
I0
I0
I0
I1
I1
I1
I1
I0
I1
I1
I1
I1
I1
I1
I0
I0
I1
I1
I1
I1
I0
I1
I0
I1
I0
I0
I0
I1
I1
I0
I0
I0
I1
I0
tp136
a(I1
I1
I1
I1
I0
I0
I0
I1
I1
I0
I1
I1
I1
I0
I1
I1
I0
I0
I1
I0
I0
I1
I0
I0
I1
I1
I1
I1
I1
I1
I1
I0
I0
I1
I1
I0
tp137
a(I1
I1
I0
I1
I0
I1
I1
I1
I1
I1
I1
I0
I0
I1
I0
I1
I1
I0
I1
I0
I0
I1
I0
I1
I0
I0
I0
I0
I0
I1
I1
I0
I0
I1
I0
I0
tp138
a(I1
I1
I1
I1
I0
I0
I1
I1
I1
I1
I1
I1
I0
I1
I1
I1
I0
I0
I1
I0
I0
I1
I0
I0
I1
I1
I1
I1
I0
I1
I0
I0
I0
I1
I1
I0
tp139
a(I1
I1
I0
I1
I1
I0
I1
I1
I1
I0
I1
I0
I1
I1
I1
I1
I0
I0
I0
I0
I1
I1
I0
I1
I1
I1
I1
I1
I0
I1
I0
I0
I0
I0
I0
I0
tp140
a(I1
I1
I1
I1
I0
I0
I1
I1
I1
I1
I1
I1
I1
I1
I0
I1
I0
I0
I1
I0
I0
I0
I0
I0
I0
I1
I1
I1
I0
I0
I1
I1
I0
I1
I0
I0
tp141
a(I1
I1
I1
I1
I0
I0
I0
I1
I1
I1
I1
I1
I1
I1
I1
I1
I1
I0
I1
I0
I0
I1
I0
I1
I0
I0
I1
I0
I1
I1
I0
I0
I0
I0
I1
I0
tp142
a(I1
I0
I1
I1
I0
I1
I1
I1
I0
I1
I1
I1
I0
I1
I0
I1
I0
I0
I0
I0
I0
I1
I0
I0
I0
I1
I1
I0
I0
I0
I1
I1
I1
I0
I0
I0
tp143
a(I0
I1
I1
I1
I0
I0
I1
I0
I1
I1
I0
I1
I1
I1
I1
I0
I0
I0
I1
I0
I1
I1
I0
I0
I1
I1
I1
I1
I1
I0
I1
I0
I0
I1
I0
I0
tp144
a(I1
I0
I1
I1
I0
I0
I0
I1
I1
I1
I0
I1
I1
I1
I1
I1
I0
I0
I1
I0
I0
I0
I0
I1
I1
I1
I1
I1
I1
I0
I0
I0
I0
I1
I0
I0
tp145
a(I1
I0
I1
I0
I0
I1
I1
I1
I1
I1
I1
I1
I1
I1
I0
I0
I0
I0
I0
I1
I0
I1
I1
I0
I1
I1
I1
I0
I0
I0
I0
I0
I0
I1
I0
I0
tp146
a(I1
I1
I1
I1
I0
I0
I1
I0
I1
I0
I1
I1
I1
I1
I1
I1
I0
I0
I1
I1
I1
I1
I0
I0
I1
I0
I1
I0
I1
I1
I0
I0
I0
I1
I0
I0
tp147
a(I1
I1
I1
I0
I0
I0
I0
I1
I1
I1
I1
I1
I1
I1
I0
I0
I0
I0
I1
I0
I0
I1
I0
I0
I1
I1
I1
I1
I0
I1
I0
I0
I0
I0
I0
I0
tp148
a(I1
I1
I1
I1
I0
I0
I1
I1
I1
I0
I1
I0
I1
I1
I1
I1
I0
I0
I0
I0
I1
I1
I0
I0
I1
I0
I1
I1
I0
I0
I0
I0
I0
I1
I1
I0
tp149
a(I0
I1
I1
I1
I0
I0
I1
I1
I1
I1
I1
I1
I1
I0
I1
I1
I1
I0
I0
I0
I0
I1
I0
I0
I0
I0
I1
I0
I0
I0
I0
I1
I1
I1
I0
I0
tp150
a(I1
I1
I1
I0
I0
I0
I1
I1
I1
I1
I1
I1
I1
I1
I1
I1
I1
I0
I1
I0
I0
I0
I0
I0
I1
I1
I1
I0
I0
I1
I1
I0
I0
I0
I0
I0
tp151
a(I1
I1
I1
I0
I1
I1
I1
I1
I1
I1
I0
I1
I0
I1
I0
I1
I0
I0
I1
I0
I0
I1
I0
I1
I1
I1
I1
I1
I1
I0
I0
I1
I1
I1
I0
I0
tp152
a(I1
I0
I0
I1
I0
I1
I0
I0
I1
I0
I0
I1
I1
I1
I1
I1
I0
I0
I1
I0
I0
I1
I0
I0
I1
I0
I0
I1
I1
I1
I0
I0
I1
I0
I0
I0
tp153
a(I1
I1
I1
I1
I0
I1
I0
I0
I1
I0
I1
I1
I1
I1
I1
I1
I0
I0
I1
I0
I0
I1
I0
I1
I1
I1
I1
I1
I1
I1
I1
I1
I1
I1
I0
I0
tp154
a(I0
I1
I1
I1
I0
I0
I1
I0
I1
I1
I1
I1
I0
I1
I1
I1
I0
I0
I1
I0
I0
I1
I0
I1
I0
I1
I0
I1
I1
I0
I1
I0
I0
I0
I0
I0
tp155
a(I1
I0
I1
I1
I0
I0
I1
I1
I0
I1
I1
I1
I1
I1
I1
I1
I0
I0
I0
I1
I1
I1
I1
I0
I1
I1
I1
I1
I0
I0
I1
I0
I0
I1
I0
I0
tp156
a(I0
I0
I1
I0
I0
I0
I1
I0
I1
I0
I0
I0
I1
I1
I1
I1
I0
I1
I1
I0
I0
I0
I0
I0
I1
I1
I1
I0
I0
I0
I1
I1
I0
I0
I0
I1
tp157
a(I1
I1
I1
I1
I0
I0
I1
I0
I1
I0
I1
I1
I1
I1
I1
I1
I1
I0
I1
I0
I0
I0
I1
I0
I0
I0
I1
I1
I1
I1
I1
I0
I0
I1
I1
I0
tp158
a(I0
I1
I1
I0
I0
I0
I1
I1
I1
I1
I1
I0
I1
I1
I1
I1
I1
I1
I1
I1
I0
I1
I1
I0
I1
I1
I1
I1
I1
I1
I1
I0
I0
I1
I1
I1
tp159
a(I1
I1
I0
I1
I0
I1
I1
I1
I0
I1
I1
I0
I0
I1
I1
I1
I0
I0
I1
I0
I0
I1
I0
I0
I1
I1
I0
I0
I1
I0
I0
I0
I0
I0
I0
I0
tp160
a(I1
I1
I1
I1
I0
I1
I0
I0
I1
I0
I1
I1
I1
I1
I1
I1
I0
I0
I1
I0
I0
I1
I0
I1
I1
I1
I1
I1
I1
I1
I1
I1
I1
I1
I0
I0
tp161
a(I1
I1
I0
I1
I0
I0
I1
I1
I1
I1
I1
I1
I1
I1
I1
I1
I1
I0
I0
I0
I0
I1
I0
I0
I0
I1
I0
I1
I1
I0
I1
I1
I0
I1
I0
I0
tp162
a(I1
I1
I1
I1
I0
I1
I0
I0
I1
I0
I1
I1
I1
I1
I1
I1
I0
I0
I1
I0
I0
I1
I0
I1
I1
I1
I1
I1
I1
I1
I1
I1
I1
I1
I0
I0
tp163
a(I1
I1
I0
I0
I1
I0
I1
I1
I1
I1
I1
I1
I1
I1
I0
I0
I0
I0
I1
I1
I1
I1
I0
I0
I0
I0
I1
I1
I0
I1
I0
I1
I0
I0
I0
I0
tp164
a(I1
I1
I0
I1
I0
I0
I1
I1
I1
I1
I1
I1
I1
I1
I1
I1
I1
I0
I0
I0
I0
I1
I0
I0
I0
I1
I0
I1
I1
I0
I1
I1
I0
I1
I0
I0
tp165
a(I1
I1
I0
I1
I0
I1
I1
I1
I0
I1
I1
I0
I0
I1
I1
I1
I0
I0
I1
I0
I0
I1
I0
I0
I1
I1
I0
I0
I1
I0
I0
I0
I0
I0
I0
I0
tp166
a(I1
I1
I1
I1
I0
I0
I1
I1
I1
I1
I0
I1
I1
I1
I1
I0
I0
I0
I0
I0
I0
I1
I0
I1
I1
I1
I1
I1
I0
I1
I1
I0
I0
I0
I0
I0
tp167
a(I1
I1
I1
I1
I0
I0
I1
I1
I1
I1
I1
I1
I0
I0
I1
I1
I1
I0
I1
I0
I0
I1
I1
I1
I0
I0
I1
I0
I1
I0
I1
I0
I0
I1
I0
I0
tp168
a(I1
I1
I1
I1
I0
I0
I1
I1
I1
I1
I1
I0
I1
I1
I1
I0
I1
I0
I1
I1
I1
I1
I1
I0
I1
I1
I1
I1
I1
I0
I0
I0
I0
I1
I0
I0
tp169
a(I1
I1
I1
I1
I0
I1
I0
I0
I1
I0
I1
I1
I1
I1
I1
I1
I0
I0
I1
I0
I0
I1
I0
I1
I1
I1
I1
I1
I1
I1
I1
I1
I1
I1
I0
I0
tp170
a(I0
I1
I0
I1
I0
I0
I1
I1
I0
I0
I0
I1
I1
I1
I1
I1
I0
I0
I0
I0
I0
I1
I1
I1
I0
I1
I1
I0
I1
I1
I0
I0
I0
I1
I1
I1
tp171
a(I1
I1
I1
I1
I0
I0
I1
I1
I1
I1
I1
I0
I1
I1
I1
I0
I1
I0
I1
I1
I1
I1
I1
I0
I1
I1
I1
I1
I1
I0
I0
I0
I0
I1
I0
I0
tp172
a(I1
I1
I1
I1
I0
I0
I1
I1
I1
I0
I1
I1
I1
I0
I0
I0
I1
I0
I0
I0
I0
I1
I0
I1
I1
I1
I1
I0
I1
I1
I0
I0
I0
I0
I0
I1
tp173
a(I1
I1
I1
I1
I1
I0
I1
I0
I1
I1
I0
I0
I1
I0
I0
I1
I1
I0
I1
I0
I0
I0
I1
I0
I0
I1
I1
I1
I1
I1
I0
I0
I1
I1
I0
I0
tp174
a(I1
I1
I1
I1
I0
I0
I0
I1
I1
I0
I0
I1
I1
I0
I1
I1
I0
I0
I0
I1
I1
I1
I0
I1
I1
I1
I1
I1
I1
I1
I0
I0
I0
I1
I1
I0
tp175
a(I1
I1
I1
I1
I0
I0
I1
I1
I1
I0
I0
I0
I1
I1
I1
I0
I0
I0
I1
I0
I0
I1
I1
I0
I0
I1
I1
I1
I0
I0
I0
I0
I1
I0
I0
I0
tp176
a(I0
I0
I0
I1
I0
I0
I0
I0
I1
I1
I1
I1
I0
I1
I1
I0
I0
I0
I1
I0
I0
I1
I0
I0
I0
I1
I1
I1
I1
I0
I1
I0
I0
I1
I0
I0
tp177
a(I1
I1
I1
I1
I1
I0
I1
I1
I0
I1
I0
I1
I1
I1
I0
I0
I0
I0
I1
I0
I1
I1
I0
I1
I1
I1
I1
I1
I1
I1
I1
I1
I0
I1
I0
I0
tp178
a(I1
I1
I0
I1
I0
I0
I1
I1
I0
I1
I1
I1
I1
I1
I1
I1
I0
I0
I1
I0
I0
I1
I0
I0
I0
I1
I1
I0
I0
I0
I1
I1
I1
I0
I1
I0
tp179
a(I1
I1
I1
I1
I0
I0
I1
I1
I1
I1
I1
I1
I0
I1
I1
I0
I0
I0
I0
I0
I0
I1
I1
I0
I1
I1
I1
I1
I1
I1
I0
I0
I0
I1
I1
I1
tp180
a(I1
I1
I1
I1
I1
I0
I1
I1
I0
I1
I1
I1
I1
I0
I0
I0
I1
I0
I1
I0
I0
I1
I0
I0
I1
I1
I1
I0
I1
I0
I1
I0
I0
I1
I0
I0
tp181
a(I1
I1
I1
I1
I0
I0
I1
I1
I1
I0
I1
I1
I1
I1
I1
I1
I1
I0
I1
I0
I0
I0
I0
I1
I0
I0
I1
I0
I1
I1
I1
I1
I1
I1
I0
I0
tp182
a(I1
I1
I1
I1
I0
I1
I1
I1
I1
I0
I0
I0
I1
I1
I0
I0
I0
I0
I1
I0
I0
I1
I1
I0
I0
I1
I1
I0
I1
I1
I1
I1
I1
I1
I0
I0
tp183
a(I0
I1
I1
I1
I0
I0
I1
I1
I0
I0
I0
I0
I1
I0
I1
I0
I0
I0
I1
I0
I0
I1
I0
I0
I0
I1
I1
I0
I1
I0
I0
I0
I0
I0
I1
I1
tp184
a(I1
I1
I1
I0
I0
I0
I1
I1
I1
I0
I1
I1
I1
I1
I1
I1
I0
I0
I1
I1
I0
I1
I0
I1
I0
I1
I1
I1
I1
I1
I1
I0
I0
I1
I0
I0
tp185
a(I1
I1
I0
I1
I0
I0
I1
I1
I1
I1
I1
I0
I1
I0
I1
I0
I0
I0
I1
I0
I0
I0
I1
I0
I1
I0
I1
I1
I1
I1
I0
I0
I0
I0
I0
I0
tp186
a(I1
I1
I1
I0
I0
I0
I1
I1
I1
I1
I1
I0
I0
I0
I1
I1
I0
I0
I0
I1
I0
I1
I0
I0
I1
I0
I1
I1
I1
I0
I1
I0
I0
I1
I0
I0
tp187
a(I1
I1
I1
I1
I0
I0
I0
I1
I1
I1
I1
I1
I1
I1
I1
I1
I0
I0
I0
I0
I0
I1
I0
I1
I1
I1
I1
I1
I0
I1
I0
I0
I0
I1
I0
I0
tp188
a(I1
I1
I1
I1
I0
I0
I1
I1
I0
I0
I1
I0
I1
I1
I1
I0
I0
I0
I1
I0
I0
I0
I0
I0
I0
I1
I0
I1
I0
I1
I1
I0
I0
I1
I1
I0
tp189
a(I0
I1
I1
I1
I0
I0
I1
I1
I0
I0
I0
I1
I1
I0
I1
I0
I0
I0
I1
I0
I0
I1
I0
I0
I0
I1
I1
I1
I0
I0
I0
I0
I0
I1
I0
I0
tp190
a(I0
I1
I1
I0
I0
I0
I1
I1
I1
I1
I1
I0
I1
I1
I1
I0
I0
I0
I0
I0
I0
I0
I0
I0
I1
I1
I1
I0
I0
I0
I0
I0
I0
I0
I0
I0
tp191
a(I1
I1
I1
I1
I0
I0
I1
I1
I1
I1
I1
I1
I0
I1
I1
I0
I0
I0
I0
I0
I0
I1
I1
I0
I1
I1
I1
I1
I1
I1
I0
I0
I0
I1
I1
I1
tp192
a(I1
I0
I1
I0
I0
I0
I1
I1
I0
I1
I0
I1
I1
I0
I0
I1
I0
I0
I1
I0
I0
I1
I0
I0
I1
I1
I1
I1
I0
I0
I1
I0
I0
I1
I0
I0
tp193
a(I1
I1
I0
I1
I0
I1
I1
I0
I0
I0
I1
I1
I0
I1
I0
I1
I0
I0
I1
I1
I0
I1
I0
I1
I1
I1
I1
I0
I1
I1
I0
I0
I0
I1
I0
I0
tp194
a(I1
I1
I1
I0
I0
I0
I1
I1
I0
I0
I1
I0
I1
I0
I0
I1
I0
I0
I0
I0
I0
I1
I0
I1
I1
I0
I1
I0
I0
I1
I1
I0
I1
I1
I0
I1
tp195
a(I1
I1
I0
I1
I0
I0
I1
I1
I1
I1
I1
I1
I1
I0
I1
I1
I0
I0
I1
I0
I0
I1
I0
I0
I1
I1
I0
I1
I0
I0
I1
I1
I1
I0
I0
I0
tp196
a(I1
I0
I1
I1
I0
I1
I0
I1
I1
I0
I1
I1
I1
I1
I1
I1
I0
I0
I0
I0
I0
I1
I0
I1
I0
I0
I1
I1
I0
I0
I0
I0
I0
I0
I0
I0
tp197
a(I0
I1
I1
I1
I0
I0
I1
I1
I0
I0
I1
I1
I0
I1
I1
I0
I0
I0
I0
I0
I0
I1
I1
I0
I0
I1
I1
I0
I1
I0
I1
I0
I0
I0
I0
I0
tp198
a(I1
I1
I1
I1
I0
I1
I0
I1
I1
I1
I1
I0
I1
I1
I0
I1
I0
I0
I1
I1
I1
I1
I0
I1
I0
I1
I1
I1
I1
I1
I1
I0
I0
I0
I0
I0
tp199
a(I1
I1
I0
I1
I0
I0
I1
I0
I1
I1
I1
I1
I1
I1
I1
I0
I0
I1
I1
I0
I0
I1
I0
I0
I1
I1
I1
I1
I1
I1
I1
I0
I1
I0
I0
I0
tp200
a(I1
I1
I1
I1
I0
I0
I0
I1
I1
I0
I0
I1
I0
I1
I0
I0
I0
I0
I1
I1
I0
I1
I0
I0
I1
I1
I0
I1
I0
I1
I1
I0
I0
I1
I0
I0
tp201
a(I1
I1
I0
I1
I0
I0
I0
I0
I1
I1
I1
I0
I0
I0
I0
I1
I0
I0
I1
I0
I0
I1
I0
I0
I1
I1
I1
I1
I1
I0
I1
I0
I0
I1
I0
I1
tp202
a(I0
I1
I1
I1
I0
I0
I0
I0
I1
I1
I1
I1
I1
I1
I0
I1
I0
I0
I1
I0
I0
I1
I0
I0
I0
I0
I0
I1
I0
I0
I1
I0
I0
I1
I0
I0
tp203
a(I1
I1
I0
I0
I0
I0
I1
I1
I1
I1
I0
I1
I1
I1
I1
I1
I0
I0
I0
I0
I1
I1
I1
I0
I1
I1
I1
I0
I0
I1
I1
I1
I0
I1
I0
I0
tp204
a(I1
I1
I0
I0
I1
I1
I1
I0
I1
I0
I0
I1
I0
I1
I1
I1
I0
I0
I0
I0
I0
I0
I0
I0
I0
I1
I0
I1
I1
I1
I1
I1
I0
I1
I0
I0
tp205
a(I1
I0
I1
I0
I0
I0
I1
I0
I1
I1
I1
I1
I0
I1
I1
I1
I0
I0
I1
I0
I0
I1
I0
I1
I1
I1
I0
I0
I0
I1
I0
I0
I0
I1
I1
I0
tp206
a(I1
I1
I1
I1
I0
I0
I1
I1
I1
I0
I1
I1
I1
I0
I1
I1
I1
I0
I1
I0
I0
I1
I0
I0
I0
I1
I1
I1
I1
I0
I1
I0
I0
I1
I0
I0
tp207
a(I1
I1
I1
I0
I0
I0
I1
I1
I1
I1
I0
I1
I1
I1
I1
I1
I0
I0
I1
I0
I0
I0
I1
I0
I0
I0
I0
I0
I1
I1
I1
I0
I1
I1
I0
I0
tp208
a(I1
I1
I0
I1
I0
I0
I1
I0
I1
I1
I1
I1
I1
I1
I1
I0
I0
I1
I1
I0
I0
I1
I0
I0
I1
I1
I1
I1
I1
I1
I1
I0
I1
I0
I0
I0
tp209
a(I0
I1
I1
I1
I0
I0
I0
I0
I1
I1
I1
I1
I1
I1
I0
I1
I0
I0
I1
I0
I0
I1
I0
I0
I0
I0
I0
I1
I0
I0
I1
I0
I0
I1
I0
I0
tp210
a(I1
I0
I1
I0
I0
I0
I1
I1
I0
I1
I0
I1
I1
I0
I0
I1
I0
I0
I1
I0
I0
I1
I0
I0
I1
I1
I1
I1
I0
I0
I1
I0
I0
I1
I0
I0
tp211
a(I1
I0
I1
I0
I0
I0
I1
I1
I0
I1
I0
I1
I1
I0
I0
I1
I0
I0
I1
I0
I0
I1
I0
I0
I1
I1
I1
I1
I0
I0
I1
I0
I0
I1
I0
I0
tp212
a(I1
I1
I1
I0
I0
I0
I1
I1
I1
I1
I1
I1
I1
I1
I0
I0
I0
I0
I0
I0
I0
I1
I1
I0
I1
I0
I0
I1
I1
I0
I1
I1
I0
I0
I1
I0
tp213
a(I1
I1
I1
I1
I0
I0
I1
I0
I1
I1
I1
I1
I1
I1
I1
I0
I0
I0
I0
I0
I0
I1
I0
I1
I0
I1
I1
I1
I1
I1
I1
I0
I0
I1
I1
I0
tp214
a(I1
I1
I0
I1
I0
I0
I0
I1
I1
I0
I1
I0
I1
I1
I1
I1
I0
I0
I1
I0
I0
I0
I0
I0
I0
I1
I1
I0
I0
I1
I1
I0
I0
I0
I1
I0
tp215
a(I1
I1
I1
I1
I0
I1
I1
I1
I1
I1
I0
I0
I1
I1
I1
I1
I0
I0
I1
I0
I0
I1
I0
I1
I0
I0
I1
I0
I0
I1
I1
I1
I0
I0
I1
I0
tp216
a(I1
I1
I1
I1
I0
I0
I1
I1
I1
I1
I1
I1
I1
I1
I1
I1
I0
I0
I1
I1
I0
I1
I0
I1
I0
I0
I1
I0
I1
I1
I0
I0
I0
I1
I1
I0
tp217
a(I1
I0
I1
I1
I0
I0
I1
I0
I1
I0
I1
I1
I0
I1
I1
I1
I1
I1
I1
I0
I0
I1
I0
I0
I1
I1
I1
I0
I1
I1
I1
I0
I0
I1
I1
I0
tp218
a(I0
I1
I1
I0
I0
I0
I0
I0
I1
I1
I1
I0
I1
I1
I0
I1
I1
I0
I0
I0
I0
I1
I0
I0
I1
I1
I1
I1
I1
I0
I1
I1
I0
I0
I1
I0
tp219
a(I1
I1
I0
I1
I0
I0
I0
I0
I0
I1
I1
I1
I0
I1
I0
I1
I1
I0
I1
I0
I0
I1
I1
I1
I1
I1
I0
I1
I1
I1
I1
I0
I0
I1
I0
I0
tp220
a(I1
I1
I1
I1
I1
I1
I1
I1
I1
I0
I1
I1
I1
I1
I1
I1
I0
I0
I1
I0
I0
I1
I0
I1
I1
I1
I1
I1
I1
I0
I1
I0
I0
I1
I0
I0
tp221
a(I0
I1
I1
I0
I0
I1
I1
I1
I1
I0
I0
I1
I1
I1
I1
I0
I0
I0
I1
I0
I1
I1
I0
I0
I1
I1
I0
I1
I0
I0
I1
I1
I1
I1
I0
I0
tp222
a(I1
I0
I1
I1
I0
I0
I0
I1
I1
I1
I0
I1
I1
I1
I1
I1
I0
I0
I0
I0
I0
I1
I0
I0
I0
I1
I1
I1
I0
I0
I0
I0
I0
I1
I0
I1
tp223
a(I0
I1
I1
I1
I1
I1
I1
I1
I1
I1
I1
I1
I0
I1
I1
I1
I1
I0
I0
I0
I1
I0
I0
I1
I1
I1
I0
I1
I1
I1
I0
I0
I0
I1
I0
I0
tp224
a(I1
I1
I1
I0
I0
I0
I1
I1
I1
I1
I1
I1
I0
I1
I1
I1
I0
I0
I1
I0
I0
I1
I1
I1
I1
I0
I0
I1
I1
I0
I1
I1
I0
I1
I0
I0
tp225
a(I1
I0
I1
I0
I0
I1
I1
I0
I0
I0
I1
I1
I1
I1
I1
I0
I0
I0
I0
I0
I1
I1
I0
I0
I1
I1
I1
I1
I0
I0
I0
I0
I0
I1
I1
I0
tp226
a(I0
I1
I0
I1
I1
I0
I1
I0
I1
I0
I1
I1
I1
I1
I1
I1
I0
I0
I1
I0
I0
I1
I0
I1
I1
I1
I1
I1
I0
I1
I1
I0
I0
I1
I0
I0
tp227
a(I1
I1
I1
I1
I1
I0
I1
I1
I1
I0
I1
I0
I1
I1
I1
I0
I0
I0
I1
I0
I0
I1
I0
I0
I1
I1
I0
I1
I1
I1
I1
I0
I0
I0
I1
I0
tp228
a(I0
I1
I1
I1
I0
I0
I1
I1
I0
I0
I1
I1
I1
I1
I1
I1
I1
I1
I0
I1
I1
I1
I0
I0
I1
I0
I1
I0
I1
I1
I1
I0
I0
I1
I0
I1
tp229
a(I1
I1
I1
I0
I0
I0
I1
I0
I1
I0
I1
I0
I0
I1
I1
I0
I1
I0
I1
I0
I0
I1
I0
I1
I1
I1
I0
I0
I1
I1
I0
I0
I0
I1
I0
I0
tp230
a(I1
I1
I1
I0
I0
I0
I1
I1
I1
I1
I1
I0
I0
I0
I0
I1
I0
I0
I0
I0
I1
I0
I0
I0
I0
I0
I0
I0
I0
I1
I0
I0
I0
I0
I0
I0
tp231
a(I0
I1
I0
I1
I0
I0
I0
I1
I1
I1
I1
I1
I1
I0
I1
I1
I1
I1
I0
I0
I0
I0
I1
I0
I1
I0
I0
I0
I1
I0
I1
I0
I0
I1
I0
I0
tp232
a(I1
I1
I1
I1
I1
I1
I1
I1
I1
I0
I1
I1
I1
I1
I1
I1
I0
I0
I0
I0
I0
I1
I0
I0
I1
I1
I1
I1
I1
I0
I1
I0
I0
I1
I0
I0
tp233
a(I1
I1
I1
I1
I0
I0
I1
I1
I1
I0
I0
I0
I1
I1
I0
I0
I0
I0
I1
I0
I0
I1
I0
I0
I0
I1
I1
I1
I1
I1
I0
I1
I0
I0
I1
I0
tp234
a(I1
I1
I1
I1
I0
I0
I0
I1
I1
I0
I1
I1
I1
I1
I1
I1
I1
I1
I1
I0
I0
I1
I0
I0
I1
I1
I1
I1
I0
I1
I1
I0
I0
I1
I0
I0
tp235
a(I1
I1
I1
I1
I1
I1
I1
I1
I1
I0
I1
I1
I1
I1
I1
I1
I0
I0
I1
I0
I0
I1
I0
I0
I1
I1
I1
I1
I1
I1
I1
I0
I0
I1
I0
I0
tp236
a(I1
I1
I1
I0
I0
I1
I1
I0
I1
I1
I1
I1
I1
I1
I1
I1
I1
I0
I1
I0
I0
I0
I1
I1
I1
I1
I0
I0
I1
I0
I1
I1
I0
I1
I0
I0
tp237
a(I1
I1
I1
I0
I0
I1
I0
I0
I1
I1
I1
I1
I1
I1
I0
I0
I0
I1
I0
I0
I0
I0
I1
I0
I0
I0
I0
I0
I1
I1
I0
I0
I0
I1
I0
I0
tp238
a(I0
I1
I1
I1
I0
I0
I1
I1
I1
I1
I1
I1
I0
I1
I1
I0
I0
I0
I1
I0
I0
I1
I0
I0
I1
I1
I0
I1
I1
I0
I1
I0
I0
I1
I1
I0
tp239
a(I1
I0
I1
I0
I0
I1
I1
I1
I1
I1
I1
I1
I0
I0
I0
I0
I1
I0
I0
I0
I0
I1
I0
I0
I1
I1
I0
I0
I0
I1
I0
I0
I0
I1
I0
I0
tp240
a(I1
I1
I1
I1
I0
I0
I1
I1
I1
I0
I1
I1
I0
I1
I0
I1
I0
I0
I1
I1
I0
I1
I1
I0
I0
I1
I1
I1
I1
I1
I0
I1
I0
I1
I0
I0
tp241
a(I1
I1
I1
I1
I0
I0
I1
I1
I1
I0
I1
I1
I1
I0
I1
I1
I0
I0
I1
I0
I0
I1
I0
I0
I1
I1
I1
I1
I1
I0
I1
I1
I0
I0
I0
I0
tp242
a(I1
I1
I0
I1
I0
I0
I0
I0
I0
I1
I1
I1
I0
I1
I0
I1
I1
I0
I1
I0
I0
I1
I1
I1
I1
I1
I0
I1
I1
I1
I1
I0
I0
I1
I0
I0
tp243
a(I1
I1
I1
I0
I0
I0
I1
I0
I1
I0
I1
I0
I1
I1
I1
I1
I0
I0
I1
I0
I0
I1
I0
I0
I0
I0
I1
I1
I0
I1
I0
I0
I0
I1
I0
I0
tp244
a(I0
I1
I1
I1
I0
I1
I1
I1
I1
I1
I1
I1
I1
I1
I1
I0
I0
I0
I1
I0
I0
I1
I0
I1
I1
I1
I1
I1
I0
I1
I0
I0
I0
I1
I0
I0
tp245
a(I1
I0
I1
I1
I0
I0
I1
I0
I1
I1
I1
I1
I1
I0
I1
I1
I0
I0
I1
I0
I0
I1
I0
I0
I1
I0
I1
I0
I0
I1
I1
I1
I0
I0
I0
I0
tp246
a(I1
I1
I1
I1
I0
I1
I1
I1
I1
I0
I1
I1
I0
I0
I0
I1
I0
I0
I1
I0
I0
I1
I0
I0
I1
I0
I1
I0
I1
I1
I0
I1
I0
I0
I1
I0
tp247
a(I1
I1
I1
I1
I1
I0
I1
I1
I1
I0
I1
I0
I1
I0
I1
I0
I0
I0
I0
I0
I1
I1
I0
I1
I0
I1
I1
I1
I1
I1
I0
I0
I0
I1
I1
I0
tp248
a(I0
I1
I0
I1
I1
I0
I1
I0
I1
I0
I1
I1
I1
I1
I1
I1
I0
I0
I1
I0
I0
I1
I0
I1
I1
I1
I1
I1
I0
I1
I1
I0
I0
I1
I0
I0
tp249
a(I1
I1
I1
I0
I0
I0
I1
I0
I1
I0
I1
I0
I1
I1
I1
I1
I0
I0
I1
I0
I0
I1
I0
I0
I0
I0
I1
I1
I0
I1
I0
I0
I0
I1
I0
I0
tp250
a(I0
I1
I0
I1
I1
I0
I1
I0
I1
I0
I1
I1
I1
I1
I1
I1
I0
I0
I1
I0
I0
I1
I0
I1
I1
I1
I1
I1
I0
I1
I1
I0
I0
I1
I0
I0
tp251
a(I1
I0
I1
I1
I0
I0
I1
I1
I1
I1
I1
I1
I1
I1
I0
I1
I0
I0
I1
I0
I0
I1
I0
I0
I0
I1
I0
I1
I1
I1
I1
I0
I0
I0
I0
I1
tp252
a(I1
I1
I1
I0
I0
I0
I1
I0
I1
I1
I1
I1
I1
I0
I1
I1
I0
I1
I0
I0
I0
I1
I0
I1
I1
I1
I1
I1
I1
I0
I1
I0
I0
I0
I1
I0
tp253
a(I1
I1
I1
I1
I0
I0
I1
I0
I0
I1
I1
I1
I0
I1
I0
I1
I0
I0
I1
I0
I0
I0
I1
I0
I0
I1
I1
I0
I1
I0
I0
I0
I0
I1
I1
I0
tp254
a(I1
I1
I0
I1
I0
I0
I1
I1
I1
I0
I1
I1
I0
I1
I1
I1
I0
I1
I0
I0
I0
I1
I1
I1
I0
I1
I1
I1
I1
I1
I0
I1
I0
I0
I1
I0
tp255
a(I1
I1
I1
I1
I1
I0
I0
I1
I1
I0
I0
I1
I0
I1
I0
I1
I0
I0
I1
I1
I0
I0
I1
I1
I1
I1
I1
I0
I1
I1
I0
I0
I0
I0
I1
I0
tp256
a(I1
I1
I1
I1
I0
I1
I1
I0
I0
I0
I0
I0
I1
I1
I1
I1
I0
I0
I0
I0
I0
I1
I0
I0
I1
I1
I1
I1
I1
I1
I0
I0
I0
I1
I0
I0
tp257
a(I1
I1
I0
I1
I0
I0
I0
I0
I0
I1
I1
I1
I0
I1
I0
I1
I1
I0
I1
I0
I0
I1
I1
I1
I1
I1
I0
I1
I1
I1
I1
I0
I0
I1
I0
I0
tp258
a(I0
I1
I1
I0
I0
I0
I0
I0
I1
I1
I1
I0
I1
I1
I0
I1
I1
I0
I0
I0
I0
I1
I0
I0
I1
I1
I1
I1
I1
I0
I1
I1
I0
I0
I1
I0
tp259
a(I1
I0
I1
I0
I0
I0
I1
I1
I1
I1
I0
I0
I1
I1
I1
I0
I1
I0
I1
I0
I1
I1
I0
I1
I1
I1
I1
I0
I1
I1
I0
I0
I0
I1
I0
I0
tp260
a(I1
I1
I1
I0
I0
I0
I1
I1
I1
I1
I1
I1
I1
I1
I0
I0
I0
I0
I0
I0
I0
I1
I1
I0
I1
I0
I0
I1
I1
I0
I1
I1
I0
I0
I1
I0
tp261
a(I1
I1
I1
I1
I1
I1
I1
I1
I1
I0
I1
I1
I1
I1
I1
I1
I0
I0
I1
I0
I0
I1
I0
I1
I1
I1
I1
I1
I1
I0
I1
I0
I0
I1
I0
I0
tp262
a(I0
I1
I1
I0
I0
I1
I1
I1
I1
I0
I0
I1
I1
I1
I1
I0
I0
I0
I1
I0
I1
I1
I0
I0
I1
I1
I0
I1
I0
I0
I1
I1
I1
I1
I0
I0
tp263
a(I0
I0
I1
I0
I0
I0
I1
I1
I0
I1
I1
I0
I1
I1
I1
I0
I1
I0
I1
I0
I1
I1
I1
I1
I1
I1
I1
I0
I0
I0
I0
I0
I0
I0
I0
I1
tp264
a(I1
I1
I1
I1
I0
I0
I0
I1
I1
I1
I1
I1
I1
I0
I1
I0
I0
I0
I1
I0
I1
I1
I1
I0
I1
I1
I0
I0
I1
I0
I1
I0
I1
I1
I0
I0
tp265
a(I1
I1
I1
I1
I0
I1
I1
I1
I1
I1
I0
I0
I1
I1
I1
I1
I0
I0
I1
I0
I0
I1
I0
I1
I0
I0
I1
I0
I0
I1
I1
I1
I0
I0
I1
I0
tp266
a(I1
I1
I1
I1
I0
I0
I1
I0
I1
I1
I1
I1
I1
I1
I1
I0
I0
I0
I0
I0
I0
I1
I0
I1
I0
I1
I1
I1
I1
I1
I1
I0
I0
I1
I1
I0
tp267
a(I1
I1
I1
I1
I0
I1
I1
I1
I1
I0
I0
I0
I1
I0
I1
I1
I0
I0
I1
I1
I0
I1
I0
I1
I1
I0
I0
I1
I0
I1
I1
I0
I0
I1
I0
I1
tp268
a(I1
I0
I1
I0
I0
I0
I1
I1
I1
I1
I0
I0
I1
I1
I1
I0
I1
I0
I1
I0
I1
I1
I0
I1
I1
I1
I1
I0
I1
I1
I0
I0
I0
I1
I0
I0
tp269
a(I0
I1
I0
I1
I0
I0
I0
I1
I1
I1
I1
I1
I1
I0
I1
I1
I1
I1
I0
I0
I0
I0
I1
I0
I1
I0
I0
I0
I1
I0
I1
I0
I0
I1
I0
I0
tp270
a(I1
I0
I1
I0
I0
I0
I0
I1
I0
I0
I0
I1
I0
I1
I1
I0
I1
I0
I1
I0
I0
I0
I0
I1
I1
I0
I1
I1
I1
I1
I0
I0
I0
I1
I1
I1
tp271
a(I0
I1
I0
I1
I1
I0
I1
I0
I1
I0
I1
I1
I1
I1
I1
I1
I0
I0
I1
I0
I0
I1
I0
I1
I1
I1
I1
I1
I0
I1
I1
I0
I0
I1
I0
I0
tp272
a(I1
I1
I1
I1
I0
I1
I1
I1
I1
I0
I1
I1
I0
I0
I0
I1
I0
I0
I1
I0
I0
I1
I0
I0
I1
I0
I1
I0
I1
I1
I0
I1
I0
I0
I1
I0
tp273
a(I1
I0
I1
I1
I0
I0
I1
I0
I1
I1
I1
I1
I1
I0
I1
I1
I0
I0
I1
I0
I0
I1
I0
I0
I1
I0
I1
I0
I0
I1
I1
I1
I0
I0
I0
I0
tp274
a(I0
I1
I0
I1
I0
I0
I0
I1
I1
I1
I1
I1
I1
I1
I1
I0
I0
I0
I1
I0
I0
I1
I0
I0
I0
I1
I0
I1
I0
I1
I1
I0
I0
I1
I1
I1
tp275
a(I0
I1
I1
I0
I0
I0
I0
I0
I1
I1
I1
I0
I1
I1
I0
I1
I1
I0
I0
I0
I0
I1
I0
I0
I1
I1
I1
I1
I1
I0
I1
I1
I0
I0
I1
I0
tp276
a(I1
I1
I1
I0
I0
I0
I1
I1
I0
I0
I1
I1
I1
I1
I1
I1
I0
I0
I1
I1
I0
I1
I0
I0
I0
I1
I1
I0
I1
I1
I0
I0
I0
I1
I1
I0
tp277
a(I1
I1
I1
I0
I0
I0
I1
I1
I1
I1
I1
I1
I1
I1
I0
I0
I0
I0
I0
I0
I0
I1
I1
I0
I1
I0
I0
I1
I1
I0
I1
I1
I0
I0
I1
I0
tp278
a(I1
I1
I0
I1
I0
I0
I0
I0
I0
I1
I1
I1
I0
I1
I0
I1
I1
I0
I1
I0
I0
I1
I1
I1
I1
I1
I0
I1
I1
I1
I1
I0
I0
I1
I0
I0
tp279
a(I1
I0
I1
I1
I0
I1
I1
I0
I0
I0
I1
I1
I1
I1
I0
I1
I0
I0
I0
I0
I0
I1
I0
I1
I0
I1
I1
I0
I1
I1
I1
I0
I0
I1
I0
I0
tp280
a(I0
I1
I0
I1
I0
I0
I1
I1
I0
I0
I1
I1
I0
I1
I1
I1
I1
I0
I0
I0
I0
I0
I0
I0
I1
I1
I1
I0
I1
I1
I0
I0
I0
I1
I0
I0
tp281
a(I1
I1
I1
I0
I0
I0
I1
I0
I1
I0
I1
I0
I1
I1
I1
I1
I0
I0
I1
I0
I0
I1
I0
I0
I0
I0
I1
I1
I0
I1
I0
I0
I0
I1
I0
I0
tp282
a(I1
I1
I1
I1
I0
I0
I0
I1
I1
I1
I0
I0
I1
I0
I1
I0
I0
I0
I1
I1
I0
I0
I0
I0
I1
I1
I1
I0
I1
I0
I0
I0
I0
I1
I0
I0
tp283
a(I0
I1
I1
I1
I0
I0
I1
I1
I1
I1
I1
I0
I1
I0
I1
I0
I0
I1
I1
I0
I0
I1
I0
I0
I1
I0
I1
I1
I1
I1
I0
I0
I0
I1
I0
I1
tp284
a(I0
I1
I1
I1
I0
I1
I1
I0
I0
I1
I1
I1
I0
I1
I1
I1
I1
I0
I1
I0
I0
I1
I1
I0
I1
I1
I1
I0
I1
I1
I1
I0
I1
I1
I0
I0
tp285
a(I1
I1
I1
I1
I0
I0
I0
I0
I1
I1
I1
I0
I1
I0
I1
I1
I0
I0
I0
I0
I0
I1
I0
I0
I0
I0
I0
I1
I1
I0
I0
I0
I0
I1
I1
I0
tp286
a(I0
I1
I1
I0
I0
I1
I1
I1
I1
I1
I1
I1
I1
I1
I1
I0
I0
I0
I1
I0
I0
I0
I0
I0
I0
I1
I1
I0
I1
I1
I1
I0
I1
I0
I1
I0
tp287
a(I1
I1
I1
I1
I0
I1
I1
I1
I1
I1
I1
I1
I0
I1
I1
I1
I1
I0
I1
I0
I0
I1
I1
I0
I1
I1
I1
I1
I0
I1
I1
I1
I0
I1
I0
I0
tp288
a(I1
I1
I1
I1
I0
I0
I0
I1
I1
I1
I1
I1
I1
I1
I1
I1
I0
I0
I1
I0
I0
I1
I1
I1
I0
I0
I0
I1
I0
I1
I1
I1
I1
I1
I0
I1
tp289
a(I1
I1
I1
I1
I0
I0
I1
I1
I1
I0
I1
I1
I0
I0
I1
I1
I0
I0
I0
I0
I0
I1
I1
I1
I0
I1
I1
I0
I1
I1
I1
I0
I0
I1
I0
I0
tp290
a(I1
I1
I1
I1
I0
I0
I0
I1
I1
I0
I0
I1
I1
I0
I1
I1
I1
I0
I1
I0
I0
I1
I1
I0
I0
I1
I0
I0
I1
I1
I0
I0
I0
I0
I1
I0
tp291
a(I1
I1
I1
I1
I0
I0
I0
I1
I1
I0
I0
I0
I1
I1
I1
I1
I1
I0
I1
I0
I0
I1
I0
I1
I1
I1
I0
I1
I0
I1
I1
I0
I0
I1
I1
I0
tp292
a(I1
I1
I1
I0
I0
I0
I1
I1
I1
I0
I0
I1
I1
I1
I0
I1
I0
I0
I0
I1
I1
I1
I0
I0
I0
I1
I1
I0
I1
I1
I1
I0
I0
I1
I0
I0
tp293
a(I1
I1
I1
I1
I1
I0
I0
I1
I1
I1
I1
I1
I0
I1
I1
I0
I0
I0
I1
I0
I1
I0
I0
I0
I1
I1
I1
I0
I1
I0
I1
I0
I0
I0
I1
I0
tp294
a(I0
I1
I1
I1
I0
I0
I1
I1
I0
I0
I1
I1
I1
I0
I1
I0
I0
I0
I0
I1
I1
I1
I0
I0
I0
I1
I1
I1
I1
I1
I1
I1
I0
I1
I0
I0
tp295
a(I0
I0
I1
I1
I0
I1
I1
I1
I1
I1
I1
I1
I0
I1
I1
I1
I0
I0
I0
I0
I1
I1
I1
I0
I1
I1
I0
I1
I0
I1
I0
I0
I0
I1
I0
I0
tp296
a(I1
I1
I1
I1
I0
I0
I0
I0
I1
I1
I0
I1
I1
I1
I1
I0
I0
I0
I1
I0
I0
I0
I1
I0
I0
I1
I1
I0
I1
I0
I1
I0
I0
I1
I1
I0
tp297
a(I0
I1
I1
I0
I0
I1
I1
I1
I1
I1
I1
I1
I1
I1
I1
I0
I0
I0
I1
I0
I0
I0
I0
I0
I0
I1
I1
I0
I1
I1
I1
I0
I1
I0
I1
I0
tp298
a(I1
I1
I1
I1
I0
I0
I0
I1
I1
I0
I0
I0
I1
I1
I1
I1
I1
I0
I1
I0
I0
I1
I0
I1
I1
I1
I0
I1
I0
I1
I1
I0
I0
I1
I1
I0
tp299
a(I1
I1
I0
I1
I1
I1
I1
I1
I1
I1
I1
I1
I1
I0
I0
I1
I1
I0
I0
I0
I0
I1
I0
I0
I1
I1
I1
I1
I1
I0
I1
I0
I1
I1
I0
I0
tp300
a(I1
I1
I1
I1
I0
I0
I1
I1
I0
I0
I0
I0
I1
I1
I1
I0
I0
I0
I1
I0
I0
I1
I0
I1
I1
I1
I1
I1
I1
I1
I1
I0
I0
I0
I0
I1
tp301
a(I0
I1
I1
I1
I1
I1
I1
I1
I1
I1
I1
I1
I0
I0
I1
I1
I0
I0
I1
I0
I1
I1
I1
I0
I0
I1
I1
I1
I0
I0
I1
I0
I0
I1
I0
I1
tp302
a(I0
I1
I1
I0
I0
I1
I1
I1
I1
I1
I1
I1
I1
I1
I1
I0
I0
I0
I1
I0
I0
I0
I0
I0
I0
I1
I1
I0
I1
I1
I1
I0
I1
I0
I1
I0
tp303
a(I1
I1
I1
I1
I0
I0
I0
I1
I1
I0
I0
I0
I1
I1
I1
I1
I1
I0
I1
I0
I0
I1
I0
I1
I1
I1
I0
I1
I0
I1
I1
I0
I0
I1
I1
I0
tp304
a(I1
I1
I1
I0
I0
I0
I1
I1
I1
I0
I0
I1
I1
I1
I0
I1
I0
I0
I0
I1
I1
I1
I0
I0
I0
I1
I1
I0
I1
I1
I1
I0
I0
I1
I0
I0
tp305
a(I0
I1
I1
I0
I0
I1
I1
I1
I1
I1
I1
I1
I1
I1
I1
I0
I0
I0
I1
I0
I0
I0
I0
I0
I0
I1
I1
I0
I1
I1
I1
I0
I1
I0
I1
I0
tp306
a(I1
I1
I1
I1
I0
I0
I1
I0
I1
I1
I0
I1
I1
I0
I1
I1
I0
I0
I1
I0
I0
I1
I0
I1
I1
I1
I0
I1
I1
I1
I1
I1
I0
I1
I1
I0
tp307
a(I1
I1
I0
I1
I1
I1
I1
I1
I1
I1
I1
I1
I1
I0
I0
I1
I1
I0
I0
I0
I0
I1
I0
I0
I1
I1
I1
I1
I1
I0
I1
I0
I1
I1
I0
I0
tp308
a(I1
I1
I1
I1
I0
I1
I1
I1
I1
I1
I1
I1
I0
I1
I1
I1
I1
I0
I1
I0
I0
I1
I1
I0
I1
I1
I1
I1
I0
I1
I1
I1
I0
I1
I0
I0
tp309
a(I1
I1
I1
I1
I0
I0
I0
I1
I1
I0
I0
I0
I1
I1
I1
I1
I1
I0
I1
I0
I0
I1
I0
I1
I1
I1
I0
I1
I0
I1
I1
I0
I0
I1
I1
I0
tp310
a(I1
I1
I0
I1
I1
I0
I1
I1
I1
I1
I1
I1
I1
I1
I0
I0
I0
I0
I1
I1
I0
I1
I1
I0
I1
I1
I1
I1
I1
I0
I0
I0
I0
I1
I1
I0
tp311
a(I1
I1
I1
I0
I1
I1
I1
I1
I1
I0
I0
I0
I1
I1
I1
I1
I0
I0
I1
I0
I1
I1
I1
I0
I0
I0
I1
I0
I1
I0
I1
I0
I0
I0
I0
I0
tp312
a(I0
I0
I1
I1
I0
I0
I0
I1
I1
I1
I1
I1
I1
I1
I1
I0
I0
I0
I1
I0
I0
I0
I0
I0
I0
I1
I1
I1
I1
I1
I1
I0
I0
I0
I1
I0
tp313
a(I0
I1
I1
I1
I0
I0
I1
I0
I1
I0
I0
I1
I1
I0
I1
I1
I0
I0
I0
I0
I0
I1
I0
I1
I0
I0
I1
I1
I0
I0
I0
I0
I0
I0
I0
I0
tp314
a(I1
I1
I1
I1
I0
I0
I1
I1
I1
I1
I1
I1
I0
I0
I1
I1
I0
I0
I1
I0
I0
I0
I0
I0
I1
I1
I1
I0
I1
I1
I0
I0
I0
I0
I0
I0
tp315
a(I0
I1
I1
I0
I0
I1
I1
I1
I1
I1
I1
I1
I1
I1
I1
I0
I0
I0
I1
I0
I0
I0
I0
I0
I0
I1
I1
I0
I1
I1
I1
I0
I1
I0
I1
I0
tp316
a(I1
I1
I1
I1
I0
I0
I1
I1
I0
I0
I0
I0
I1
I1
I1
I0
I0
I0
I1
I0
I0
I1
I0
I1
I1
I1
I1
I1
I1
I1
I1
I0
I0
I0
I0
I1
tp317
a(I1
I1
I1
I1
I0
I1
I1
I1
I1
I1
I1
I1
I0
I1
I1
I1
I1
I0
I1
I0
I0
I1
I1
I0
I1
I1
I1
I1
I0
I1
I1
I1
I0
I1
I0
I0
tp318
a(I1
I1
I1
I1
I0
I0
I0
I1
I1
I1
I1
I1
I1
I1
I1
I1
I0
I0
I1
I0
I0
I1
I1
I1
I0
I0
I0
I1
I0
I1
I1
I1
I1
I1
I0
I1
tp319
a(I1
I1
I1
I1
I0
I0
I1
I0
I1
I1
I0
I1
I1
I0
I1
I1
I0
I0
I1
I0
I0
I1
I0
I1
I1
I1
I0
I1
I1
I1
I1
I1
I0
I1
I1
I0
tp320
a(I1
I1
I1
I1
I0
I1
I1
I1
I1
I1
I1
I1
I1
I1
I1
I1
I1
I0
I1
I0
I1
I1
I0
I1
I1
I1
I1
I1
I1
I0
I1
I0
I0
I1
I0
I0
tp321
a(I1
I1
I1
I1
I0
I0
I1
I1
I1
I1
I1
I0
I1
I1
I1
I1
I0
I0
I1
I1
I0
I1
I0
I0
I0
I0
I0
I1
I1
I0
I0
I1
I0
I0
I0
I1
tp322
a(I0
I1
I1
I1
I0
I0
I1
I1
I0
I0
I1
I1
I1
I1
I0
I0
I1
I1
I0
I0
I0
I0
I1
I0
I0
I1
I1
I0
I1
I0
I0
I0
I0
I1
I1
I0
tp323
a(I1
I1
I1
I1
I0
I1
I1
I1
I1
I0
I1
I1
I1
I1
I1
I1
I0
I0
I1
I0
I0
I1
I1
I0
I0
I0
I1
I1
I1
I0
I1
I0
I0
I0
I0
I1
tp324
a(I1
I1
I1
I1
I1
I1
I1
I0
I1
I0
I0
I0
I1
I1
I1
I0
I0
I0
I0
I0
I1
I1
I0
I0
I0
I1
I1
I1
I1
I1
I0
I1
I0
I0
I0
I0
tp325
a(I1
I1
I0
I0
I0
I0
I0
I0
I1
I1
I1
I1
I0
I1
I0
I1
I0
I0
I1
I0
I0
I1
I0
I1
I0
I1
I0
I0
I1
I1
I1
I0
I0
I0
I1
I0
tp326
a(I1
I1
I1
I1
I0
I0
I1
I1
I1
I1
I1
I0
I1
I1
I1
I0
I0
I0
I1
I0
I1
I0
I0
I0
I1
I0
I1
I0
I0
I0
I0
I0
I0
I0
I0
I0
tp327
a(I1
I1
I1
I1
I0
I0
I0
I1
I1
I0
I0
I0
I1
I1
I1
I0
I0
I0
I0
I0
I1
I1
I1
I0
I0
I1
I1
I0
I1
I0
I1
I1
I0
I0
I0
I1
tp328
a(I1
I1
I1
I1
I0
I0
I1
I0
I0
I0
I0
I0
I1
I1
I1
I0
I0
I0
I1
I0
I1
I1
I0
I1
I1
I1
I1
I1
I0
I1
I1
I1
I0
I0
I0
I0
tp329
a(I1
I1
I0
I1
I0
I1
I0
I1
I1
I1
I1
I1
I1
I1
I1
I1
I0
I0
I0
I0
I0
I1
I1
I0
I0
I1
I1
I1
I0
I0
I1
I1
I0
I1
I0
I0
tp330
a(I1
I1
I1
I1
I0
I1
I1
I1
I1
I0
I1
I1
I1
I1
I1
I1
I0
I0
I1
I0
I0
I1
I1
I0
I0
I0
I1
I1
I1
I0
I1
I0
I0
I0
I0
I1
tp331
a(I1
I0
I1
I1
I1
I1
I1
I0
I0
I0
I1
I0
I1
I1
I1
I1
I0
I0
I0
I0
I0
I0
I1
I1
I1
I1
I1
I1
I1
I1
I0
I0
I0
I1
I1
I0
tp332
a(I1
I1
I0
I0
I0
I0
I0
I0
I1
I1
I1
I1
I0
I1
I0
I1
I0
I0
I1
I0
I0
I1
I0
I1
I0
I1
I0
I0
I1
I1
I1
I0
I0
I0
I1
I0
tp333
a(I1
I1
I1
I0
I0
I0
I1
I1
I1
I1
I0
I1
I1
I1
I1
I0
I1
I1
I1
I0
I0
I1
I0
I1
I0
I1
I1
I0
I1
I1
I0
I0
I0
I1
I0
I0
tp334
a(I0
I1
I1
I1
I0
I0
I1
I0
I1
I0
I1
I1
I1
I1
I1
I0
I0
I0
I1
I0
I0
I1
I0
I0
I1
I1
I0
I1
I1
I0
I1
I0
I0
I1
I0
I0
tp335
a(I1
I1
I1
I1
I0
I1
I1
I1
I1
I1
I1
I1
I1
I1
I1
I1
I1
I0
I1
I0
I1
I1
I0
I1
I1
I1
I1
I1
I1
I0
I1
I0
I0
I1
I0
I0
tp336
a(I1
I1
I1
I1
I0
I0
I1
I0
I0
I0
I0
I0
I1
I1
I1
I0
I0
I0
I1
I0
I1
I1
I0
I1
I1
I1
I1
I1
I0
I1
I1
I1
I0
I0
I0
I0
tp337
a(I1
I1
I1
I1
I1
I1
I1
I0
I1
I0
I0
I0
I1
I1
I1
I0
I0
I0
I0
I0
I1
I1
I0
I0
I0
I1
I1
I1
I1
I1
I0
I1
I0
I0
I0
I0
tp338
a(I1
I0
I1
I1
I1
I1
I1
I0
I0
I0
I1
I0
I1
I1
I1
I1
I0
I0
I0
I0
I0
I0
I1
I1
I1
I1
I1
I1
I1
I1
I0
I0
I0
I1
I1
I0
tp339
a(I1
I1
I1
I1
I0
I0
I1
I1
I1
I1
I1
I1
I0
I1
I1
I1
I1
I1
I1
I0
I1
I1
I0
I1
I0
I0
I0
I0
I0
I1
I0
I0
I0
I0
I1
I1
tp340
a(I1
I1
I1
I1
I0
I1
I1
I1
I1
I0
I1
I1
I1
I1
I1
I1
I0
I0
I1
I0
I0
I1
I1
I0
I0
I0
I1
I1
I1
I0
I1
I0
I0
I0
I0
I1
tp341
a(I1
I1
I1
I1
I0
I1
I1
I0
I1
I0
I1
I1
I0
I1
I1
I1
I0
I0
I0
I0
I1
I0
I0
I0
I1
I1
I0
I0
I1
I1
I0
I1
I0
I1
I0
I0
tp342
a(I1
I1
I0
I0
I0
I0
I0
I1
I1
I1
I1
I1
I1
I1
I0
I1
I0
I0
I1
I1
I1
I1
I0
I0
I0
I0
I0
I0
I1
I1
I0
I1
I0
I1
I0
I1
tp343
a(I1
I1
I1
I1
I1
I1
I1
I1
I0
I0
I1
I0
I1
I1
I0
I1
I1
I0
I1
I0
I1
I1
I1
I1
I0
I0
I1
I1
I1
I0
I1
I0
I0
I1
I0
I0
tp344
a(I1
I1
I1
I0
I1
I0
I1
I1
I1
I1
I1
I0
I1
I1
I1
I0
I0
I0
I1
I0
I1
I1
I0
I0
I0
I0
I0
I0
I0
I0
I0
I1
I1
I0
I1
I0
tp345
a(I1
I0
I1
I1
I0
I0
I1
I1
I0
I1
I1
I1
I0
I1
I0
I1
I0
I0
I0
I0
I0
I1
I0
I1
I0
I1
I1
I1
I0
I0
I0
I0
I1
I1
I0
I0
tp346
a(I0
I1
I0
I1
I0
I0
I1
I1
I1
I1
I1
I1
I1
I1
I0
I0
I0
I0
I0
I0
I0
I1
I0
I1
I1
I1
I1
I0
I0
I1
I1
I0
I0
I0
I0
I0
tp347
a(I1
I1
I1
I1
I1
I1
I1
I1
I0
I0
I1
I0
I1
I1
I0
I1
I1
I0
I1
I0
I1
I1
I1
I1
I0
I0
I1
I1
I1
I0
I1
I0
I0
I1
I0
I0
tp348
a(I1
I1
I1
I1
I0
I0
I1
I0
I1
I1
I1
I1
I1
I0
I1
I1
I0
I0
I1
I0
I1
I1
I0
I1
I1
I1
I1
I1
I0
I1
I0
I0
I1
I1
I0
I0
tp349
a(I1
I0
I0
I1
I0
I0
I1
I1
I1
I1
I1
I1
I0
I1
I1
I0
I0
I0
I1
I0
I0
I1
I1
I0
I0
I1
I1
I1
I1
I1
I1
I0
I0
I1
I1
I0
tp350
a(I1
I0
I1
I1
I0
I0
I1
I0
I1
I0
I0
I1
I1
I1
I1
I0
I0
I0
I0
I0
I0
I1
I0
I0
I1
I1
I0
I1
I0
I0
I0
I0
I0
I1
I0
I0
tp351
a(I1
I0
I1
I0
I0
I0
I0
I0
I1
I0
I0
I0
I0
I1
I1
I1
I0
I0
I1
I0
I0
I0
I0
I0
I1
I1
I1
I0
I1
I0
I1
I0
I0
I0
I1
I0
tp352
a(I1
I0
I1
I1
I0
I0
I1
I0
I1
I0
I0
I1
I1
I1
I0
I1
I0
I0
I0
I0
I0
I1
I0
I0
I0
I0
I1
I1
I0
I1
I0
I0
I1
I0
I0
I0
tp353
a(I1
I0
I1
I1
I0
I1
I1
I1
I1
I0
I0
I0
I1
I0
I1
I0
I1
I0
I1
I1
I0
I1
I0
I0
I0
I1
I1
I0
I0
I0
I0
I0
I1
I0
I0
I0
tp354
a(I1
I0
I1
I1
I0
I1
I1
I1
I1
I0
I0
I0
I1
I0
I1
I0
I1
I0
I1
I1
I0
I1
I0
I0
I0
I1
I1
I0
I0
I0
I0
I0
I1
I0
I0
I0
tp355
a(I1
I1
I1
I1
I0
I0
I1
I0
I1
I1
I1
I1
I1
I1
I0
I0
I0
I0
I1
I0
I0
I1
I0
I0
I1
I1
I1
I1
I1
I1
I1
I0
I1
I1
I0
I0
tp356
a(I0
I1
I0
I0
I0
I0
I0
I1
I1
I1
I0
I1
I1
I1
I1
I1
I1
I1
I0
I0
I0
I1
I0
I0
I1
I1
I1
I1
I1
I0
I1
I1
I0
I0
I0
I0
tp357
a(I1
I0
I1
I1
I0
I0
I1
I0
I1
I0
I0
I1
I1
I1
I1
I1
I0
I0
I1
I0
I0
I1
I0
I1
I1
I0
I0
I1
I1
I1
I1
I0
I0
I0
I0
I0
tp358
a(I0
I1
I0
I0
I0
I0
I0
I1
I1
I1
I0
I1
I1
I1
I1
I1
I1
I1
I0
I0
I0
I1
I0
I0
I1
I1
I1
I1
I1
I0
I1
I1
I0
I0
I0
I0
tp359
a(I1
I1
I0
I0
I0
I0
I1
I1
I1
I1
I1
I1
I1
I0
I1
I1
I0
I0
I0
I0
I0
I1
I0
I1
I0
I0
I1
I0
I0
I0
I0
I0
I0
I0
I0
I0
tp360
a(I1
I1
I1
I0
I0
I0
I0
I0
I1
I0
I1
I1
I1
I1
I1
I1
I0
I0
I1
I0
I1
I0
I0
I0
I1
I1
I1
I0
I1
I1
I1
I0
I0
I0
I0
I1
tp361
a(I1
I1
I1
I0
I0
I1
I0
I1
I1
I1
I1
I1
I1
I1
I1
I1
I1
I0
I0
I0
I1
I1
I1
I0
I1
I1
I0
I0
I1
I0
I0
I0
I0
I0
I0
I0
tp362
a(I1
I1
I1
I1
I0
I0
I1
I1
I1
I1
I0
I0
I1
I1
I1
I1
I0
I1
I1
I0
I0
I0
I0
I0
I0
I1
I1
I0
I1
I0
I0
I1
I0
I1
I0
I0
tp363
a(I1
I1
I1
I1
I0
I1
I1
I1
I1
I1
I1
I1
I1
I1
I0
I0
I0
I0
I1
I0
I0
I1
I0
I1
I1
I1
I1
I0
I1
I1
I1
I0
I0
I0
I0
I1
tp364
a(I0
I1
I0
I0
I0
I0
I0
I1
I1
I1
I0
I1
I1
I1
I1
I1
I1
I1
I0
I0
I0
I1
I0
I0
I1
I1
I1
I1
I1
I0
I1
I1
I0
I0
I0
I0
tp365
a(I0
I1
I1
I0
I0
I0
I1
I1
I1
I0
I1
I1
I0
I1
I1
I1
I1
I0
I1
I0
I0
I0
I0
I0
I1
I1
I1
I0
I1
I1
I0
I0
I0
I0
I0
I0
tp366
a(I1
I1
I1
I1
I0
I0
I1
I0
I0
I1
I1
I1
I1
I1
I1
I1
I1
I0
I0
I0
I0
I1
I0
I1
I1
I0
I1
I1
I1
I1
I1
I0
I1
I1
I1
I0
tp367
a(I1
I1
I1
I1
I0
I1
I1
I1
I1
I1
I1
I0
I0
I0
I1
I1
I1
I1
I0
I0
I0
I1
I1
I0
I1
I1
I1
I0
I0
I1
I0
I0
I0
I0
I0
I0
tp368
a(I1
I0
I1
I1
I0
I0
I1
I1
I1
I1
I1
I1
I0
I1
I0
I1
I0
I0
I0
I0
I1
I1
I0
I0
I0
I1
I1
I1
I0
I0
I0
I0
I0
I0
I1
I0
tp369
a(I1
I1
I1
I1
I0
I0
I1
I1
I1
I1
I0
I0
I1
I1
I1
I1
I0
I0
I1
I1
I0
I1
I0
I0
I1
I1
I1
I0
I0
I1
I0
I0
I0
I1
I0
I0
tp370
a(I1
I0
I1
I1
I0
I0
I0
I0
I0
I0
I1
I1
I1
I0
I1
I0
I0
I0
I1
I1
I0
I1
I0
I0
I0
I1
I1
I0
I0
I0
I1
I1
I0
I0
I0
I0
tp371
a(I1
I1
I1
I1
I0
I0
I1
I0
I0
I1
I1
I1
I1
I1
I1
I1
I1
I0
I0
I0
I0
I1
I0
I1
I1
I0
I1
I1
I1
I1
I1
I0
I1
I1
I1
I0
tp372
a(I1
I1
I1
I0
I0
I0
I1
I1
I1
I1
I1
I0
I1
I1
I1
I1
I0
I1
I1
I0
I1
I1
I0
I0
I1
I1
I1
I0
I1
I1
I0
I0
I0
I1
I0
I0
tp373
a(I0
I1
I1
I0
I0
I0
I1
I1
I1
I0
I1
I1
I0
I1
I1
I1
I1
I0
I1
I0
I0
I0
I0
I0
I1
I1
I1
I0
I1
I1
I0
I0
I0
I0
I0
I0
tp374
a(I1
I1
I1
I0
I0
I0
I1
I0
I1
I1
I1
I0
I1
I0
I1
I0
I0
I0
I1
I0
I0
I0
I0
I1
I0
I1
I1
I0
I1
I1
I0
I1
I0
I1
I1
I0
tp375
a(I1
I1
I0
I1
I0
I0
I1
I1
I0
I1
I1
I1
I0
I1
I1
I0
I0
I0
I0
I1
I0
I1
I0
I1
I1
I1
I0
I1
I1
I1
I0
I0
I1
I0
I1
I0
tp376
a(I1
I1
I1
I1
I0
I1
I1
I1
I1
I1
I1
I0
I0
I0
I1
I1
I1
I1
I0
I0
I0
I1
I1
I0
I1
I1
I1
I0
I0
I1
I0
I0
I0
I0
I0
I0
tp377
a(I1
I1
I1
I1
I0
I1
I1
I1
I1
I1
I1
I0
I1
I1
I1
I0
I1
I0
I1
I0
I0
I0
I0
I0
I0
I0
I1
I0
I1
I0
I1
I1
I0
I1
I1
I0
tp378
a(I1
I1
I1
I1
I0
I0
I1
I0
I0
I1
I1
I1
I1
I1
I1
I1
I1
I0
I0
I0
I0
I1
I0
I1
I1
I0
I1
I1
I1
I1
I1
I0
I1
I1
I1
I0
tp379
a(I0
I1
I1
I0
I0
I0
I1
I1
I1
I0
I1
I1
I0
I1
I1
I1
I1
I0
I1
I0
I0
I0
I0
I0
I1
I1
I1
I0
I1
I1
I0
I0
I0
I0
I0
I0
tp380
a(I0
I0
I0
I0
I0
I0
I1
I1
I1
I0
I1
I1
I1
I1
I0
I0
I0
I0
I1
I0
I0
I1
I1
I0
I1
I1
I1
I0
I1
I0
I1
I0
I0
I0
I1
I0
tp381
a(I1
I1
I1
I1
I0
I0
I1
I1
I1
I1
I1
I0
I0
I1
I1
I1
I0
I0
I1
I1
I0
I1
I1
I1
I0
I1
I0
I1
I1
I0
I1
I0
I1
I1
I0
I0
tp382
a(I0
I1
I0
I1
I1
I0
I1
I0
I1
I1
I1
I1
I1
I1
I1
I1
I0
I0
I1
I1
I0
I1
I0
I1
I0
I1
I1
I1
I1
I1
I0
I0
I0
I0
I1
I0
tp383
a(I1
I0
I0
I0
I0
I0
I1
I1
I1
I0
I1
I1
I0
I1
I1
I0
I0
I0
I1
I0
I0
I1
I0
I1
I0
I1
I1
I1
I1
I1
I1
I1
I0
I0
I1
I1
tp384
a(I0
I1
I0
I1
I0
I0
I1
I1
I1
I1
I1
I0
I1
I1
I1
I1
I0
I0
I1
I0
I0
I1
I0
I1
I1
I1
I0
I1
I1
I0
I1
I1
I0
I0
I0
I0
tp385
a(I0
I1
I1
I0
I1
I0
I1
I0
I1
I1
I1
I1
I1
I1
I1
I1
I0
I0
I1
I0
I0
I1
I1
I0
I1
I1
I1
I0
I1
I0
I1
I0
I1
I1
I0
I0
tp386
a(I1
I1
I1
I1
I0
I0
I1
I1
I1
I0
I1
I1
I1
I0
I1
I0
I0
I0
I1
I1
I1
I1
I0
I0
I1
I1
I1
I1
I1
I0
I0
I1
I1
I1
I1
I0
tp387
a(I0
I1
I0
I1
I1
I1
I1
I0
I0
I1
I1
I1
I1
I1
I0
I1
I0
I0
I1
I1
I0
I0
I1
I0
I1
I1
I1
I0
I0
I0
I1
I0
I0
I0
I1
I0
tp388
a(I1
I0
I0
I0
I0
I0
I1
I1
I1
I0
I1
I1
I0
I1
I1
I0
I0
I0
I1
I0
I0
I1
I0
I1
I0
I1
I1
I1
I1
I1
I1
I1
I0
I0
I1
I1
tp389
a(I1
I1
I1
I0
I0
I0
I1
I0
I1
I1
I1
I1
I1
I1
I1
I1
I0
I0
I1
I0
I0
I1
I0
I1
I0
I0
I0
I1
I1
I1
I1
I0
I0
I0
I1
I0
tp390
a(I0
I1
I0
I1
I1
I1
I1
I0
I0
I1
I1
I1
I1
I1
I0
I1
I0
I0
I1
I1
I0
I0
I1
I0
I1
I1
I1
I0
I0
I0
I1
I0
I0
I0
I1
I0
tp391
a(I0
I0
I0
I1
I0
I0
I1
I1
I1
I1
I1
I1
I0
I0
I1
I1
I0
I0
I0
I0
I0
I1
I0
I1
I1
I1
I1
I1
I1
I1
I0
I0
I0
I0
I1
I0
tp392
a(I1
I0
I1
I1
I0
I0
I1
I0
I1
I1
I1
I1
I1
I0
I1
I1
I0
I0
I1
I0
I0
I1
I0
I1
I0
I0
I0
I1
I0
I0
I1
I1
I0
I1
I0
I0
tp393
a(I1
I1
I1
I0
I0
I0
I1
I1
I1
I0
I0
I1
I1
I0
I1
I1
I0
I0
I1
I0
I0
I1
I0
I0
I0
I1
I1
I0
I0
I1
I1
I0
I0
I1
I0
I0
tp394
a(I1
I1
I1
I1
I0
I0
I1
I1
I1
I0
I1
I1
I1
I0
I0
I0
I0
I0
I1
I0
I0
I1
I1
I1
I0
I0
I1
I1
I1
I1
I1
I1
I0
I1
I0
I1
tp395
a(I1
I0
I1
I0
I0
I0
I1
I1
I1
I0
I1
I1
I1
I1
I1
I1
I1
I0
I1
I0
I0
I1
I0
I0
I0
I0
I1
I1
I1
I1
I1
I0
I1
I1
I0
I0
tp396
a(I1
I0
I1
I1
I1
I0
I0
I1
I1
I1
I0
I0
I0
I1
I1
I1
I1
I0
I1
I0
I0
I1
I0
I1
I1
I0
I1
I0
I0
I1
I1
I1
I0
I0
I0
I0
tp397
a(I0
I1
I1
I1
I1
I1
I1
I1
I1
I1
I1
I1
I0
I1
I1
I0
I1
I1
I0
I0
I1
I1
I0
I0
I0
I0
I1
I1
I1
I0
I1
I0
I0
I0
I1
I0
tp398
a(I0
I1
I1
I1
I0
I0
I1
I1
I1
I0
I1
I1
I1
I0
I1
I0
I0
I0
I1
I0
I1
I1
I0
I0
I1
I1
I0
I1
I1
I0
I0
I0
I0
I0
I1
I0
tp399
a(I1
I0
I0
I1
I0
I0
I1
I1
I1
I0
I0
I0
I1
I0
I1
I0
I0
I1
I0
I1
I0
I1
I0
I0
I0
I0
I1
I1
I0
I1
I1
I0
I0
I1
I0
I0
tp400
a(I1
I1
I1
I0
I0
I1
I1
I0
I1
I1
I1
I1
I0
I1
I1
I1
I0
I0
I1
I0
I1
I1
I0
I0
I1
I1
I1
I0
I1
I0
I1
I1
I0
I1
I1
I0
tp401
a(I1
I1
I0
I1
I0
I0
I1
I1
I0
I1
I1
I1
I0
I1
I0
I0
I0
I0
I1
I0
I1
I1
I1
I0
I0
I1
I1
I1
I1
I0
I0
I0
I0
I1
I0
I0
tp402
a(I0
I1
I1
I1
I0
I0
I1
I1
I1
I1
I1
I1
I1
I1
I1
I1
I0
I0
I1
I0
I0
I1
I0
I1
I1
I1
I1
I1
I0
I1
I1
I0
I1
I1
I1
I1
tp403
a(I1
I1
I1
I1
I0
I0
I1
I1
I1
I1
I0
I1
I1
I1
I1
I0
I0
I0
I1
I0
I0
I1
I1
I0
I1
I1
I1
I1
I1
I0
I1
I0
I0
I1
I0
I0
tp404
a(I1
I1
I1
I1
I0
I1
I1
I1
I1
I0
I1
I1
I1
I1
I1
I0
I0
I1
I0
I0
I0
I1
I1
I0
I0
I1
I1
I0
I1
I1
I0
I0
I0
I1
I0
I0
tp405
a(I1
I0
I1
I1
I0
I1
I1
I1
I1
I0
I1
I0
I1
I1
I1
I0
I0
I0
I0
I1
I1
I0
I1
I0
I1
I1
I1
I1
I1
I0
I0
I0
I0
I1
I0
I0
tp406
a(I1
I1
I1
I1
I0
I0
I0
I1
I0
I1
I1
I0
I1
I1
I1
I0
I0
I0
I1
I0
I0
I1
I0
I0
I1
I1
I1
I0
I1
I1
I0
I0
I0
I1
I0
I0
tp407
a(I1
I1
I1
I0
I1
I0
I1
I1
I1
I1
I1
I1
I1
I1
I1
I1
I0
I0
I1
I0
I0
I1
I0
I1
I1
I1
I1
I0
I0
I1
I1
I0
I0
I1
I0
I0
tp408
a(I1
I1
I1
I1
I0
I0
I1
I1
I1
I0
I0
I0
I1
I1
I1
I0
I0
I0
I1
I0
I0
I1
I1
I0
I0
I0
I0
I0
I1
I0
I1
I1
I1
I0
I1
I0
tp409
a(I0
I1
I1
I1
I1
I1
I1
I0
I0
I1
I0
I1
I0
I1
I1
I0
I0
I0
I0
I0
I0
I1
I1
I0
I1
I1
I1
I0
I1
I1
I0
I0
I0
I0
I1
I0
tp410
a(I1
I0
I1
I1
I0
I0
I1
I0
I1
I1
I1
I0
I1
I1
I0
I0
I0
I0
I1
I0
I0
I1
I1
I0
I0
I1
I1
I1
I1
I0
I0
I0
I0
I1
I0
I0
tp411
a(I1
I0
I1
I0
I0
I0
I1
I1
I1
I1
I1
I0
I1
I1
I1
I0
I0
I0
I0
I0
I0
I0
I0
I1
I0
I1
I1
I0
I1
I1
I1
I1
I0
I0
I0
I0
tp412
a(I1
I1
I0
I1
I0
I0
I1
I1
I0
I1
I1
I1
I1
I1
I1
I1
I0
I1
I1
I1
I0
I1
I1
I1
I0
I1
I1
I1
I1
I1
I1
I1
I0
I1
I1
I0
tp413
a(I0
I1
I1
I0
I0
I0
I1
I1
I1
I0
I0
I1
I1
I1
I1
I0
I1
I0
I1
I1
I0
I1
I1
I0
I1
I1
I1
I1
I1
I0
I1
I0
I0
I1
I1
I0
tp414
a(I1
I1
I1
I0
I0
I0
I1
I1
I1
I1
I1
I1
I0
I1
I1
I1
I0
I0
I1
I0
I0
I1
I0
I0
I1
I1
I1
I0
I0
I1
I0
I0
I0
I1
I0
I0
tp415
a(I0
I1
I1
I1
I0
I0
I0
I1
I1
I1
I1
I1
I1
I1
I1
I1
I1
I1
I1
I1
I0
I1
I0
I0
I0
I1
I1
I0
I1
I0
I1
I0
I0
I1
I1
I1
tp416
a(I1
I1
I1
I1
I1
I0
I0
I1
I1
I1
I1
I0
I1
I0
I0
I0
I1
I0
I1
I1
I0
I1
I1
I1
I1
I1
I1
I1
I1
I1
I1
I1
I0
I1
I0
I0
tp417
a(I1
I1
I0
I1
I1
I0
I0
I0
I1
I0
I1
I1
I1
I1
I1
I1
I0
I0
I1
I0
I0
I0
I0
I1
I1
I0
I0
I1
I0
I1
I1
I1
I0
I1
I0
I0
tp418
a(I1
I0
I1
I1
I1
I1
I0
I1
I1
I1
I1
I1
I0
I1
I1
I0
I0
I0
I1
I1
I1
I0
I0
I1
I1
I1
I1
I1
I0
I0
I1
I0
I0
I1
I0
I0
tp419
a(I1
I1
I1
I1
I0
I1
I1
I0
I0
I1
I1
I1
I0
I0
I1
I1
I0
I0
I1
I0
I0
I0
I0
I1
I1
I0
I1
I0
I0
I1
I0
I0
I0
I1
I0
I1
tp420
a(I1
I1
I1
I1
I0
I1
I1
I0
I0
I1
I1
I1
I1
I0
I1
I0
I0
I0
I0
I0
I1
I0
I0
I1
I1
I1
I0
I0
I0
I0
I0
I0
I0
I0
I0
I0
tp421
a(I1
I1
I1
I0
I0
I0
I1
I1
I1
I0
I1
I0
I1
I1
I1
I1
I0
I0
I1
I0
I0
I1
I0
I0
I1
I1
I1
I1
I0
I1
I1
I0
I0
I1
I0
I0
tp422
a(I0
I1
I1
I1
I0
I0
I1
I1
I1
I1
I1
I1
I1
I1
I1
I0
I1
I0
I1
I0
I0
I1
I0
I0
I1
I1
I1
I0
I1
I0
I1
I0
I0
I0
I0
I0
tp423
a(I1
I1
I1
I0
I0
I1
I1
I1
I1
I0
I1
I1
I1
I1
I1
I1
I1
I0
I0
I0
I0
I1
I0
I0
I0
I0
I0
I1
I0
I1
I1
I0
I0
I1
I0
I0
tp424
a(I1
I1
I1
I1
I1
I0
I0
I1
I1
I0
I1
I1
I1
I1
I1
I0
I0
I0
I1
I1
I0
I1
I0
I0
I0
I0
I0
I1
I0
I0
I1
I0
I0
I1
I1
I0
tp425
a(I1
I1
I1
I0
I0
I0
I1
I1
I1
I0
I1
I0
I1
I1
I1
I1
I0
I0
I1
I0
I0
I1
I0
I0
I1
I1
I1
I1
I0
I1
I1
I0
I0
I1
I0
I0
tp426
a(I1
I1
I1
I1
I0
I0
I1
I1
I1
I0
I1
I1
I1
I0
I1
I1
I1
I0
I0
I0
I0
I1
I0
I0
I0
I0
I1
I0
I0
I1
I1
I0
I0
I1
I0
I0
tp427
a(I1
I1
I1
I1
I0
I0
I1
I0
I1
I1
I1
I1
I1
I1
I1
I1
I1
I1
I1
I0
I0
I1
I0
I0
I0
I1
I0
I1
I1
I0
I1
I1
I0
I1
I0
I0
tp428
a(I0
I1
I1
I1
I0
I0
I1
I1
I1
I1
I0
I0
I1
I1
I1
I0
I0
I0
I1
I0
I0
I0
I0
I0
I0
I1
I0
I0
I0
I1
I1
I0
I0
I0
I0
I0
tp429
a(I1
I1
I1
I0
I0
I0
I1
I1
I1
I0
I1
I0
I0
I1
I0
I1
I0
I0
I1
I0
I0
I0
I0
I1
I1
I1
I1
I0
I0
I1
I1
I0
I0
I1
I0
I0
tp430
a(I1
I1
I1
I1
I1
I0
I0
I1
I1
I0
I1
I1
I1
I1
I1
I0
I0
I0
I1
I1
I0
I1
I0
I0
I0
I0
I0
I1
I0
I0
I1
I0
I0
I1
I1
I0
tp431
a(I0
I1
I1
I1
I1
I1
I1
I1
I0
I1
I1
I1
I1
I1
I1
I1
I1
I0
I0
I0
I1
I1
I1
I1
I0
I1
I1
I1
I1
I1
I0
I1
I0
I1
I1
I0
tp432
a(I1
I1
I1
I0
I0
I0
I1
I1
I1
I1
I1
I1
I0
I1
I1
I1
I0
I0
I1
I0
I0
I1
I0
I0
I1
I1
I1
I0
I0
I1
I0
I0
I0
I1
I0
I0
tp433
a(I1
I1
I1
I0
I1
I0
I1
I1
I0
I1
I1
I1
I1
I0
I1
I0
I0
I0
I1
I0
I0
I1
I0
I0
I1
I1
I1
I1
I0
I1
I0
I0
I0
I0
I1
I0
tp434
a(I0
I0
I1
I1
I0
I0
I1
I1
I0
I1
I0
I0
I1
I1
I1
I0
I0
I0
I0
I0
I0
I0
I0
I0
I1
I1
I1
I1
I0
I0
I0
I1
I0
I1
I0
I0
tp435
a(I1
I1
I1
I0
I0
I0
I1
I1
I1
I0
I0
I1
I1
I1
I1
I1
I1
I0
I1
I0
I0
I1
I0
I1
I1
I1
I1
I1
I0
I1
I1
I0
I0
I1
I0
I0
tp436
a(I1
I1
I1
I1
I1
I0
I1
I1
I1
I0
I0
I0
I0
I1
I1
I0
I0
I0
I1
I0
I0
I1
I0
I0
I0
I1
I1
I1
I1
I1
I0
I0
I0
I0
I0
I0
tp437
a(I1
I1
I1
I0
I0
I1
I0
I0
I1
I1
I1
I0
I1
I1
I1
I0
I0
I0
I1
I0
I0
I0
I0
I0
I1
I1
I1
I0
I0
I0
I1
I1
I1
I1
I0
I0
tp438
a(I1
I1
I1
I1
I0
I0
I0
I1
I1
I0
I1
I1
I1
I0
I1
I0
I0
I0
I0
I0
I0
I1
I1
I0
I0
I0
I0
I1
I0
I0
I0
I0
I1
I1
I1
I0
tp439
a(I1
I0
I1
I1
I0
I0
I0
I1
I1
I0
I1
I1
I1
I1
I0
I1
I0
I0
I1
I0
I0
I1
I0
I0
I0
I0
I0
I1
I1
I1
I1
I0
I0
I1
I0
I1
tp440
a(I1
I1
I1
I1
I0
I0
I0
I1
I1
I0
I1
I1
I1
I0
I1
I0
I0
I0
I0
I0
I0
I1
I1
I0
I0
I0
I0
I1
I0
I0
I0
I0
I1
I1
I1
I0
tp441
a(I1
I1
I1
I1
I0
I0
I0
I1
I1
I0
I1
I1
I1
I0
I1
I0
I0
I0
I0
I0
I0
I1
I1
I0
I0
I0
I0
I1
I0
I0
I0
I0
I1
I1
I1
I0
tp442
a(I1
I1
I1
I1
I0
I0
I0
I1
I1
I1
I1
I1
I0
I1
I1
I1
I0
I0
I1
I0
I1
I0
I0
I0
I1
I1
I1
I0
I0
I1
I1
I0
I0
I1
I1
I0
tp443
a(I1
I1
I1
I0
I0
I0
I1
I1
I0
I1
I1
I1
I1
I1
I1
I1
I0
I1
I1
I1
I0
I1
I0
I0
I1
I1
I0
I1
I0
I0
I1
I0
I0
I0
I0
I0
tp444
a(I1
I1
I0
I0
I1
I1
I1
I1
I0
I1
I1
I0
I1
I1
I1
I0
I0
I0
I1
I0
I0
I1
I0
I1
I1
I1
I1
I1
I0
I0
I1
I0
I0
I1
I0
I1
tp445
a(I1
I1
I1
I0
I0
I0
I1
I1
I1
I0
I1
I1
I1
I1
I0
I0
I0
I0
I1
I0
I0
I1
I0
I1
I0
I1
I1
I0
I1
I1
I1
I1
I1
I1
I1
I0
tp446
a(I0
I1
I0
I0
I0
I0
I0
I1
I1
I0
I0
I1
I1
I1
I0
I0
I0
I0
I1
I0
I1
I0
I0
I0
I1
I1
I1
I0
I1
I0
I1
I0
I0
I1
I0
I0
tp447
a(I1
I1
I1
I0
I0
I0
I1
I1
I0
I0
I1
I1
I1
I1
I1
I1
I0
I0
I1
I1
I0
I1
I0
I0
I1
I1
I1
I0
I0
I0
I1
I0
I0
I1
I1
I0
tp448
a(I1
I1
I1
I1
I0
I0
I0
I1
I1
I1
I1
I0
I0
I0
I1
I1
I1
I0
I1
I0
I1
I1
I0
I0
I1
I1
I1
I1
I1
I1
I0
I0
I0
I0
I0
I0
tp449
a(I0
I1
I1
I1
I0
I1
I1
I1
I1
I1
I1
I1
I1
I1
I1
I1
I1
I0
I1
I0
I0
I1
I0
I1
I0
I0
I1
I0
I1
I0
I0
I0
I0
I0
I1
I0
tp450
a(I1
I1
I1
I1
I0
I0
I1
I1
I1
I0
I1
I1
I1
I1
I1
I1
I0
I0
I1
I0
I0
I1
I0
I1
I0
I0
I0
I1
I0
I0
I1
I0
I0
I1
I0
I0
tp451
a(I1
I1
I1
I0
I1
I0
I1
I1
I1
I0
I0
I1
I0
I1
I1
I0
I0
I0
I1
I0
I0
I1
I0
I1
I0
I0
I0
I1
I0
I1
I0
I0
I0
I1
I0
I0
tp452
a(I1
I0
I1
I0
I0
I0
I1
I1
I1
I1
I1
I1
I1
I1
I0
I1
I0
I0
I1
I1
I1
I1
I0
I0
I1
I1
I1
I0
I0
I0
I1
I1
I0
I1
I0
I0
tp453
a(I1
I0
I1
I1
I0
I0
I0
I1
I1
I0
I1
I1
I0
I1
I1
I1
I0
I0
I0
I0
I0
I0
I0
I0
I0
I1
I0
I0
I1
I0
I0
I0
I0
I0
I0
I0
tp454
a(I1
I1
I1
I0
I0
I0
I1
I1
I0
I0
I1
I1
I1
I1
I1
I1
I0
I0
I1
I1
I0
I1
I0
I0
I1
I1
I1
I0
I0
I0
I1
I0
I0
I1
I1
I0
tp455
a(I1
I1
I1
I0
I0
I0
I1
I0
I0
I0
I0
I1
I1
I1
I1
I1
I0
I0
I1
I0
I0
I1
I0
I0
I1
I0
I1
I1
I0
I1
I0
I0
I0
I1
I0
I1
tp456
a(I1
I1
I1
I0
I0
I0
I0
I1
I0
I0
I0
I1
I1
I0
I1
I1
I0
I0
I1
I0
I0
I1
I1
I0
I1
I1
I1
I1
I1
I1
I1
I0
I0
I1
I0
I0
tp457
a(I1
I1
I1
I1
I0
I0
I1
I1
I1
I1
I1
I0
I1
I0
I1
I1
I0
I0
I1
I0
I0
I1
I0
I0
I1
I1
I1
I0
I1
I0
I0
I0
I1
I1
I0
I0
tp458
a(I0
I1
I1
I1
I0
I0
I1
I1
I1
I1
I1
I0
I1
I1
I1
I1
I1
I0
I1
I0
I1
I1
I0
I0
I1
I0
I1
I1
I0
I1
I1
I0
I0
I0
I0
I0
tp459
a(I1
I1
I1
I1
I0
I0
I1
I1
I1
I1
I1
I1
I0
I1
I1
I1
I0
I0
I0
I0
I0
I1
I0
I1
I0
I0
I0
I1
I0
I0
I0
I1
I0
I0
I1
I0
tp460
a(I1
I1
I1
I1
I1
I1
I1
I1
I1
I1
I1
I0
I0
I1
I1
I1
I0
I0
I1
I0
I0
I1
I1
I1
I1
I1
I0
I1
I1
I1
I0
I0
I0
I0
I1
I1
tp461
a(I0
I0
I1
I1
I1
I0
I0
I1
I1
I0
I0
I0
I1
I0
I1
I0
I0
I0
I1
I0
I0
I1
I0
I0
I1
I0
I1
I1
I0
I0
I0
I0
I0
I1
I0
I0
tp462
a(I1
I1
I1
I1
I1
I0
I1
I0
I0
I1
I1
I1
I1
I1
I1
I1
I0
I0
I0
I0
I0
I0
I0
I0
I1
I0
I1
I1
I0
I0
I1
I0
I0
I1
I0
I0
tp463
a(I1
I1
I1
I1
I0
I0
I1
I1
I1
I0
I1
I1
I0
I1
I1
I1
I0
I0
I1
I0
I0
I1
I1
I0
I1
I1
I1
I1
I1
I0
I1
I0
I0
I0
I0
I1
tp464
a(I1
I1
I1
I1
I0
I0
I1
I1
I0
I1
I1
I1
I1
I1
I1
I1
I1
I0
I0
I0
I0
I1
I0
I0
I0
I1
I0
I1
I0
I1
I1
I1
I0
I0
I1
I1
tp465
a(I1
I1
I0
I1
I1
I0
I0
I1
I1
I0
I1
I1
I0
I1
I1
I0
I1
I0
I1
I0
I0
I1
I0
I1
I0
I1
I1
I1
I0
I1
I1
I0
I1
I1
I0
I0
tp466
a(I1
I1
I1
I0
I0
I1
I1
I1
I1
I1
I1
I1
I1
I1
I1
I0
I1
I0
I1
I0
I0
I1
I1
I0
I0
I1
I1
I0
I1
I0
I0
I0
I0
I1
I1
I0
tp467
a(I1
I1
I0
I1
I1
I0
I0
I1
I1
I0
I1
I1
I0
I1
I1
I0
I1
I0
I1
I0
I0
I1
I0
I1
I0
I1
I1
I1
I0
I1
I1
I0
I1
I1
I0
I0
tp468
a(I1
I1
I1
I0
I0
I0
I1
I1
I1
I1
I1
I0
I1
I1
I1
I1
I0
I0
I1
I0
I0
I0
I0
I0
I1
I1
I1
I1
I0
I0
I0
I0
I0
I1
I0
I0
tp469
a(I1
I1
I1
I1
I0
I0
I1
I1
I1
I1
I1
I1
I1
I1
I1
I0
I0
I0
I1
I0
I0
I1
I0
I1
I1
I1
I1
I0
I1
I1
I0
I0
I0
I1
I1
I1
tp470
a(I1
I1
I1
I1
I1
I1
I1
I1
I0
I0
I1
I1
I1
I1
I1
I0
I1
I0
I0
I0
I0
I1
I0
I1
I0
I1
I1
I0
I0
I1
I0
I0
I0
I1
I0
I1
tp471
a(I1
I0
I0
I1
I1
I1
I1
I1
I1
I0
I1
I1
I1
I0
I1
I0
I0
I0
I0
I0
I0
I1
I0
I0
I1
I1
I1
I1
I1
I0
I1
I0
I0
I1
I0
I0
tp472
a(I1
I0
I0
I1
I1
I1
I1
I1
I1
I0
I1
I1
I1
I0
I1
I0
I0
I0
I0
I0
I0
I1
I0
I0
I1
I1
I1
I1
I1
I0
I1
I0
I0
I1
I0
I0
tp473
a(I1
I0
I1
I1
I0
I0
I1
I1
I1
I1
I1
I0
I1
I1
I1
I0
I0
I0
I1
I0
I0
I0
I0
I0
I0
I1
I1
I1
I1
I0
I0
I0
I0
I1
I1
I0
tp474
a(I1
I1
I1
I0
I0
I0
I0
I1
I1
I0
I1
I1
I0
I1
I1
I1
I1
I0
I0
I0
I0
I1
I0
I0
I1
I1
I1
I1
I0
I1
I1
I0
I0
I1
I0
I1
tp475
a(I1
I1
I1
I1
I0
I1
I1
I1
I1
I1
I0
I0
I1
I0
I1
I1
I0
I0
I1
I0
I0
I1
I0
I0
I0
I0
I1
I1
I1
I1
I1
I0
I0
I1
I0
I0
tp476
a(I1
I0
I1
I1
I1
I1
I1
I0
I1
I1
I1
I1
I1
I0
I1
I0
I0
I0
I0
I0
I0
I1
I1
I1
I0
I0
I1
I1
I1
I1
I1
I1
I0
I1
I1
I1
tp477
a(I1
I1
I0
I1
I1
I0
I0
I1
I1
I1
I1
I0
I1
I1
I0
I0
I0
I0
I0
I0
I0
I1
I0
I1
I0
I0
I1
I0
I0
I0
I0
I0
I0
I1
I0
I0
tp478
a(I1
I1
I1
I1
I0
I0
I1
I1
I0
I0
I0
I1
I1
I1
I1
I1
I1
I0
I1
I0
I1
I1
I1
I1
I1
I0
I0
I1
I1
I1
I1
I0
I0
I0
I1
I0
tp479
a(I1
I1
I0
I1
I1
I1
I1
I1
I1
I1
I1
I1
I0
I1
I0
I1
I1
I0
I1
I0
I0
I0
I0
I0
I1
I1
I0
I0
I1
I1
I1
I0
I0
I1
I1
I0
tp480
a(I1
I1
I1
I1
I1
I0
I0
I1
I1
I1
I1
I0
I0
I1
I1
I1
I0
I0
I1
I1
I0
I0
I0
I0
I1
I1
I1
I1
I1
I1
I0
I0
I0
I1
I1
I0
tp481
a(I1
I0
I1
I1
I0
I0
I0
I1
I1
I1
I0
I1
I1
I1
I1
I0
I0
I0
I1
I0
I0
I1
I0
I1
I1
I1
I1
I1
I0
I1
I0
I1
I0
I1
I0
I0
tp482
a(I1
I1
I1
I1
I0
I0
I1
I1
I1
I0
I1
I1
I1
I1
I1
I1
I0
I0
I0
I0
I0
I1
I0
I0
I1
I1
I1
I1
I1
I0
I1
I0
I0
I1
I1
I0
tp483
a(I1
I0
I1
I1
I0
I0
I1
I1
I1
I1
I0
I1
I1
I1
I1
I0
I1
I0
I1
I0
I1
I1
I1
I0
I1
I1
I1
I1
I0
I0
I0
I0
I0
I1
I0
I0
tp484
a(I1
I1
I1
I0
I0
I0
I1
I1
I1
I1
I1
I1
I1
I1
I0
I0
I0
I1
I0
I1
I0
I1
I0
I1
I1
I0
I1
I1
I1
I1
I1
I1
I0
I0
I1
I0
tp485
a(I1
I1
I0
I1
I1
I0
I1
I1
I0
I0
I0
I1
I0
I1
I0
I0
I0
I1
I1
I0
I0
I1
I0
I0
I0
I0
I1
I1
I1
I0
I1
I0
I0
I1
I0
I0
tp486
a(I1
I0
I1
I1
I0
I1
I1
I1
I1
I0
I1
I1
I0
I1
I1
I1
I0
I0
I1
I0
I0
I1
I0
I1
I1
I1
I1
I1
I1
I1
I1
I0
I0
I1
I1
I0
tp487
a(I1
I0
I1
I1
I0
I0
I1
I1
I1
I1
I1
I1
I1
I1
I1
I0
I1
I0
I1
I1
I0
I1
I0
I0
I0
I1
I1
I1
I0
I0
I1
I0
I0
I0
I0
I0
tp488
a(I1
I1
I1
I0
I0
I0
I1
I1
I0
I1
I1
I1
I1
I1
I0
I1
I0
I0
I1
I0
I0
I1
I0
I1
I1
I1
I1
I1
I0
I0
I0
I1
I0
I1
I0
I0
tp489
a(I1
I1
I1
I0
I0
I1
I1
I1
I1
I1
I1
I1
I1
I1
I1
I1
I0
I0
I1
I0
I0
I1
I0
I0
I1
I1
I1
I0
I1
I0
I1
I0
I0
I1
I0
I0
tp490
a(I0
I1
I1
I1
I1
I0
I1
I0
I1
I0
I1
I0
I1
I1
I1
I0
I0
I0
I1
I1
I0
I1
I1
I1
I0
I1
I1
I0
I1
I1
I1
I0
I0
I0
I1
I1
tp491
a(I1
I1
I1
I0
I0
I0
I1
I1
I0
I0
I0
I1
I1
I1
I1
I1
I0
I0
I1
I1
I0
I1
I0
I0
I1
I1
I1
I1
I0
I1
I0
I0
I0
I1
I1
I0
tp492
a(I1
I1
I1
I1
I0
I0
I1
I1
I1
I0
I1
I1
I0
I1
I1
I1
I1
I0
I0
I0
I0
I1
I0
I0
I0
I1
I1
I1
I0
I1
I1
I1
I1
I1
I0
I0
tp493
a(I0
I1
I1
I1
I0
I0
I1
I1
I0
I1
I1
I1
I0
I0
I1
I1
I1
I0
I1
I1
I0
I1
I0
I1
I0
I1
I1
I1
I0
I1
I0
I0
I0
I1
I0
I0
tp494
a(I1
I0
I1
I1
I0
I1
I1
I1
I1
I0
I1
I1
I0
I1
I1
I1
I0
I0
I1
I0
I0
I1
I0
I1
I1
I1
I1
I1
I1
I1
I1
I0
I0
I1
I1
I0
tp495
a(I1
I0
I1
I1
I0
I0
I1
I1
I1
I1
I1
I1
I1
I1
I1
I0
I1
I0
I1
I1
I0
I1
I0
I0
I0
I1
I1
I1
I0
I0
I1
I0
I0
I0
I0
I0
tp496
a(I1
I1
I1
I1
I1
I0
I1
I1
I0
I0
I1
I1
I0
I1
I1
I1
I0
I0
I1
I0
I0
I1
I0
I0
I1
I1
I0
I1
I0
I0
I1
I1
I1
I1
I0
I0
tp497
a(I0
I1
I1
I1
I0
I1
I1
I0
I1
I1
I1
I1
I0
I1
I1
I0
I0
I0
I0
I0
I0
I0
I0
I0
I0
I1
I1
I1
I1
I0
I0
I0
I0
I1
I0
I0
tp498
a(I0
I1
I1
I1
I1
I1
I1
I1
I1
I1
I1
I0
I1
I1
I1
I1
I0
I0
I0
I0
I0
I1
I0
I0
I1
I1
I0
I1
I1
I0
I0
I0
I1
I0
I1
I1
tp499
a(I1
I1
I0
I0
I0
I0
I1
I1
I1
I0
I0
I1
I1
I1
I1
I1
I1
I0
I1
I0
I1
I1
I0
I0
I0
I0
I1
I1
I0
I1
I1
I0
I0
I1
I1
I1
tp500
a(I1
I1
I0
I1
I0
I0
I1
I1
I1
I0
I1
I0
I0
I1
I1
I1
I1
I1
I1
I1
I1
I1
I0
I0
I0
I1
I1
I1
I0
I0
I0
I0
I0
I0
I0
I0
tp501
a(I1
I0
I1
I1
I0
I0
I1
I1
I1
I0
I1
I1
I0
I1
I1
I1
I0
I1
I1
I1
I0
I1
I0
I0
I0
I1
I1
I1
I0
I1
I1
I0
I0
I0
I0
I0
tp502
a(I0
I1
I1
I1
I0
I0
I1
I1
I1
I1
I1
I0
I1
I1
I1
I0
I1
I0
I0
I0
I0
I1
I1
I1
I0
I0
I0
I0
I1
I1
I1
I0
I0
I1
I0
I1
tp503
a(I1
I1
I1
I1
I1
I0
I1
I1
I1
I1
I1
I1
I1
I1
I1
I1
I0
I1
I1
I0
I0
I0
I0
I1
I0
I1
I0
I0
I0
I1
I0
I0
I0
I0
I1
I0
tp504
a(I1
I1
I1
I1
I0
I0
I0
I1
I1
I0
I1
I1
I1
I0
I1
I0
I0
I0
I0
I0
I0
I1
I0
I0
I0
I1
I1
I0
I0
I0
I1
I0
I0
I1
I1
I0
tp505
a(I1
I1
I1
I1
I0
I0
I1
I1
I1
I1
I1
I1
I1
I0
I1
I0
I0
I0
I1
I0
I0
I1
I0
I0
I0
I1
I1
I0
I1
I1
I0
I0
I0
I1
I1
I1
tp506
a(I0
I0
I1
I1
I1
I0
I1
I1
I1
I0
I1
I1
I1
I0
I0
I0
I0
I0
I1
I0
I1
I1
I1
I0
I0
I1
I1
I0
I1
I1
I1
I0
I0
I1
I1
I0
tp507
a(I1
I0
I1
I1
I1
I0
I1
I1
I1
I1
I0
I1
I1
I1
I0
I0
I0
I0
I1
I0
I0
I1
I0
I0
I1
I1
I1
I1
I1
I0
I1
I1
I0
I1
I1
I0
tp508
a(I1
I1
I1
I1
I0
I0
I1
I1
I1
I1
I1
I1
I1
I1
I1
I0
I0
I0
I1
I1
I0
I1
I0
I0
I1
I1
I1
I0
I0
I1
I1
I0
I0
I1
I0
I0
tp509
a(I0
I1
I1
I1
I0
I0
I0
I0
I1
I1
I1
I1
I1
I1
I1
I1
I0
I0
I0
I1
I1
I1
I0
I0
I1
I1
I1
I0
I1
I1
I1
I0
I0
I0
I0
I0
tp510
a(I1
I1
I0
I1
I0
I0
I0
I1
I1
I0
I1
I1
I1
I1
I0
I1
I0
I0
I1
I0
I0
I1
I1
I0
I0
I0
I0
I1
I0
I1
I1
I1
I0
I1
I0
I0
tp511
a(I1
I1
I1
I1
I0
I0
I1
I1
I1
I1
I1
I0
I1
I1
I0
I0
I0
I0
I1
I0
I0
I1
I0
I0
I0
I1
I1
I1
I1
I1
I1
I1
I1
I1
I1
I0
tp512
a(I1
I1
I1
I1
I0
I0
I1
I1
I1
I0
I1
I1
I0
I1
I1
I1
I0
I0
I1
I0
I0
I0
I0
I1
I1
I1
I0
I0
I1
I1
I0
I0
I0
I1
I0
I0
tp513
a(I1
I1
I0
I0
I0
I0
I1
I1
I0
I0
I1
I1
I1
I1
I0
I1
I1
I0
I0
I0
I0
I0
I0
I1
I0
I1
I1
I0
I1
I0
I0
I0
I0
I1
I1
I1
tp514
a(I1
I0
I0
I0
I0
I0
I0
I1
I1
I0
I0
I1
I1
I0
I1
I1
I0
I0
I1
I0
I0
I1
I0
I1
I0
I1
I1
I1
I1
I1
I1
I0
I0
I0
I1
I0
tp515
a(I1
I1
I1
I0
I0
I1
I1
I1
I1
I0
I0
I0
I1
I0
I1
I1
I0
I0
I1
I1
I1
I1
I0
I0
I1
I1
I1
I1
I1
I1
I1
I0
I0
I1
I0
I0
tp516
a(I1
I1
I1
I1
I0
I1
I1
I1
I1
I0
I0
I0
I0
I1
I1
I0
I1
I0
I1
I0
I0
I1
I0
I0
I0
I0
I1
I1
I1
I0
I0
I0
I0
I1
I0
I0
tp517
a(I1
I1
I1
I1
I0
I0
I1
I1
I1
I0
I1
I0
I1
I1
I1
I1
I0
I0
I1
I0
I0
I1
I0
I1
I0
I1
I1
I1
I0
I1
I1
I1
I0
I1
I0
I0
tp518
a(I1
I1
I1
I1
I0
I0
I1
I1
I1
I1
I1
I0
I1
I1
I1
I1
I1
I0
I1
I0
I1
I1
I0
I1
I1
I1
I1
I1
I0
I0
I1
I0
I0
I0
I0
I0
tp519
a(I1
I1
I1
I1
I0
I0
I1
I1
I1
I1
I1
I1
I1
I1
I1
I0
I0
I0
I1
I1
I0
I0
I0
I0
I1
I1
I1
I0
I0
I0
I1
I0
I0
I0
I0
I0
tp520
a(I1
I1
I1
I1
I0
I0
I1
I1
I1
I1
I1
I1
I1
I1
I1
I0
I0
I0
I1
I0
I0
I1
I0
I0
I1
I1
I1
I1
I0
I1
I1
I0
I0
I1
I1
I1
tp521
a(I0
I1
I1
I0
I0
I1
I1
I1
I0
I0
I0
I1
I0
I1
I1
I1
I0
I0
I1
I0
I0
I0
I0
I0
I1
I1
I1
I0
I0
I0
I1
I1
I1
I1
I0
I0
tp522
a(I1
I1
I1
I1
I0
I0
I1
I0
I1
I0
I0
I1
I0
I1
I1
I0
I0
I0
I1
I0
I0
I1
I0
I0
I0
I1
I1
I1
I1
I1
I0
I0
I0
I1
I1
I1
tp523
a(I1
I1
I0
I1
I1
I1
I1
I1
I1
I0
I0
I1
I1
I1
I0
I1
I0
I1
I1
I0
I0
I0
I0
I0
I1
I1
I1
I0
I1
I1
I0
I0
I0
I0
I0
I0
tp524
a(I1
I1
I0
I1
I0
I0
I1
I1
I1
I0
I1
I1
I1
I1
I0
I1
I1
I0
I1
I0
I0
I0
I0
I1
I1
I1
I1
I0
I1
I1
I0
I0
I0
I1
I0
I0
tp525
a(I1
I1
I1
I1
I1
I0
I0
I1
I1
I1
I1
I0
I0
I1
I1
I1
I0
I0
I1
I1
I0
I0
I0
I0
I1
I1
I1
I1
I1
I1
I0
I0
I0
I1
I1
I0
tp526
a(I0
I1
I1
I1
I0
I0
I1
I1
I1
I0
I1
I1
I1
I1
I1
I0
I0
I0
I1
I1
I1
I1
I0
I1
I1
I1
I1
I1
I0
I1
I0
I0
I0
I0
I1
I1
tp527
a(I1
I1
I1
I1
I0
I0
I1
I1
I1
I1
I1
I1
I1
I1
I1
I1
I1
I0
I1
I1
I1
I1
I1
I0
I1
I1
I1
I1
I1
I1
I1
I0
I0
I0
I0
I0
tp528
a(I1
I0
I1
I1
I0
I0
I0
I1
I1
I1
I0
I1
I1
I1
I1
I0
I0
I0
I1
I0
I0
I1
I0
I1
I1
I1
I1
I1
I0
I1
I0
I1
I0
I1
I0
I0
tp529
a(I1
I1
I1
I1
I1
I0
I0
I1
I0
I0
I0
I1
I1
I1
I0
I1
I0
I0
I1
I0
I0
I1
I1
I0
I0
I1
I1
I1
I1
I0
I1
I0
I0
I1
I0
I0
tp530
a(I0
I1
I1
I1
I0
I0
I1
I1
I1
I1
I1
I1
I1
I0
I0
I1
I1
I0
I1
I0
I0
I1
I1
I0
I1
I1
I1
I1
I1
I1
I0
I0
I1
I0
I1
I1
tp531
a(I1
I1
I1
I1
I0
I1
I1
I1
I1
I0
I1
I1
I0
I1
I1
I0
I0
I1
I1
I0
I0
I1
I0
I0
I1
I1
I1
I0
I1
I1
I1
I0
I0
I1
I0
I0
tp532
a(I1
I0
I1
I1
I1
I1
I1
I0
I1
I1
I1
I1
I0
I1
I0
I1
I0
I0
I0
I0
I1
I1
I0
I1
I0
I0
I1
I1
I0
I1
I0
I0
I0
I1
I0
I0
tp533
a(I1
I1
I0
I1
I0
I0
I0
I1
I1
I0
I1
I1
I1
I1
I0
I1
I0
I0
I1
I0
I0
I1
I1
I0
I0
I0
I0
I1
I0
I1
I1
I1
I0
I1
I0
I0
tp534
a(I1
I1
I1
I1
I0
I0
I1
I1
I1
I0
I1
I1
I0
I1
I1
I1
I0
I0
I1
I0
I0
I0
I0
I1
I1
I1
I0
I0
I1
I1
I0
I0
I0
I1
I0
I0
tp535
a(I0
I1
I1
I1
I1
I1
I1
I1
I1
I1
I1
I0
I1
I1
I1
I0
I1
I0
I0
I0
I0
I1
I0
I0
I0
I1
I1
I1
I1
I1
I1
I1
I0
I1
I1
I1
tp536
a(I1
I1
I1
I0
I0
I0
I1
I1
I0
I0
I0
I1
I1
I1
I1
I1
I0
I0
I1
I1
I0
I1
I0
I0
I1
I1
I1
I1
I0
I1
I0
I0
I0
I1
I1
I0
tp537
a(I1
I1
I1
I1
I0
I0
I1
I1
I1
I0
I0
I1
I0
I1
I1
I0
I0
I0
I1
I0
I0
I1
I0
I0
I1
I1
I1
I0
I1
I0
I0
I1
I0
I1
I1
I0
tp538
a(I0
I1
I1
I0
I0
I1
I1
I1
I0
I0
I0
I1
I0
I1
I1
I1
I0
I0
I1
I0
I0
I0
I0
I0
I1
I1
I1
I0
I0
I0
I1
I1
I1
I1
I0
I0
tp539
a(I1
I1
I1
I1
I0
I0
I1
I1
I1
I1
I1
I1
I1
I1
I1
I0
I0
I0
I1
I0
I0
I1
I0
I0
I1
I1
I1
I1
I0
I1
I1
I0
I0
I1
I1
I1
tp540
a(I1
I1
I1
I1
I0
I0
I1
I1
I1
I0
I1
I1
I0
I1
I0
I0
I0
I0
I1
I0
I1
I1
I0
I0
I0
I1
I1
I0
I0
I0
I0
I0
I0
I1
I0
I0
tp541
a(I1
I1
I1
I1
I0
I1
I1
I1
I1
I0
I0
I0
I1
I1
I1
I0
I0
I0
I0
I0
I1
I1
I0
I1
I0
I1
I1
I1
I1
I0
I1
I1
I1
I1
I0
I0
tp542
a(I0
I1
I1
I1
I0
I0
I1
I0
I1
I0
I1
I1
I1
I1
I0
I0
I0
I1
I1
I1
I0
I1
I0
I1
I1
I1
I1
I1
I1
I1
I1
I1
I0
I1
I1
I0
tp543
a(I1
I0
I1
I0
I0
I0
I1
I1
I1
I0
I1
I1
I1
I1
I1
I1
I0
I0
I1
I1
I0
I1
I0
I0
I0
I1
I0
I0
I1
I0
I1
I0
I0
I0
I0
I0
tp544
a(I1
I0
I1
I1
I1
I0
I1
I1
I1
I0
I1
I1
I1
I1
I1
I1
I0
I0
I0
I0
I0
I1
I1
I0
I1
I0
I1
I1
I1
I0
I1
I1
I1
I1
I1
I0
tp545
a(I0
I0
I1
I0
I1
I1
I1
I1
I1
I1
I1
I1
I1
I1
I1
I0
I0
I0
I1
I0
I0
I1
I1
I0
I0
I1
I1
I1
I0
I1
I1
I0
I0
I1
I0
I0
tp546
a(I1
I1
I1
I0
I0
I0
I1
I1
I1
I0
I1
I1
I1
I1
I1
I1
I1
I0
I1
I0
I1
I1
I0
I0
I0
I1
I1
I1
I1
I1
I1
I0
I0
I1
I1
I0
tp547
a(I1
I1
I1
I1
I0
I1
I1
I1
I1
I1
I1
I1
I1
I1
I0
I1
I0
I1
I0
I0
I1
I1
I0
I1
I1
I1
I1
I1
I1
I1
I0
I0
I0
I1
I0
I0
tp548
a(I1
I0
I1
I1
I1
I1
I1
I1
I0
I0
I0
I0
I1
I0
I1
I0
I0
I1
I1
I0
I0
I1
I0
I0
I1
I1
I1
I1
I0
I0
I0
I0
I0
I1
I0
I0
tp549
a(I0
I1
I1
I1
I1
I1
I1
I0
I1
I0
I1
I1
I1
I1
I1
I0
I0
I0
I1
I1
I1
I1
I0
I1
I1
I1
I1
I1
I1
I1
I0
I0
I0
I1
I0
I0
tp550
a(I1
I0
I1
I0
I1
I0
I1
I1
I1
I1
I1
I1
I1
I1
I1
I0
I0
I0
I1
I0
I0
I1
I0
I1
I1
I0
I1
I1
I0
I1
I0
I0
I1
I1
I0
I0
tp551
a(I1
I1
I1
I1
I0
I0
I1
I1
I1
I0
I0
I0
I1
I0
I1
I1
I0
I0
I1
I0
I0
I1
I0
I1
I1
I1
I1
I0
I0
I1
I0
I0
I0
I1
I0
I0
tp552
a(I0
I0
I1
I1
I0
I1
I1
I1
I1
I1
I1
I1
I1
I0
I1
I1
I1
I0
I1
I0
I0
I1
I0
I0
I1
I1
I1
I1
I1
I1
I1
I1
I0
I0
I1
I1
tp553
a(I1
I1
I1
I1
I0
I1
I1
I1
I1
I1
I1
I0
I1
I1
I1
I1
I0
I0
I0
I0
I0
I0
I0
I0
I1
I1
I0
I0
I1
I1
I1
I0
I0
I1
I0
I0
tp554
a(I1
I1
I1
I1
I1
I0
I1
I1
I1
I1
I1
I1
I0
I1
I1
I1
I0
I0
I1
I0
I0
I1
I0
I0
I1
I1
I1
I1
I1
I0
I0
I0
I0
I1
I0
I0
tp555
a(I1
I1
I1
I0
I1
I0
I1
I1
I1
I1
I1
I1
I0
I1
I0
I0
I0
I0
I0
I1
I0
I1
I0
I0
I1
I1
I1
I1
I1
I0
I0
I0
I0
I1
I0
I0
tp556
a(I1
I1
I0
I1
I0
I0
I1
I0
I1
I1
I0
I0
I1
I0
I1
I1
I1
I0
I1
I0
I0
I1
I0
I0
I1
I1
I1
I1
I0
I0
I0
I0
I0
I1
I0
I0
tp557
a(I1
I0
I1
I1
I0
I0
I1
I1
I0
I0
I1
I1
I1
I1
I0
I0
I1
I0
I1
I1
I0
I1
I0
I0
I0
I0
I1
I0
I1
I1
I1
I0
I1
I0
I1
I0
tp558
a(I1
I1
I1
I1
I0
I0
I1
I1
I1
I0
I0
I1
I1
I1
I1
I1
I0
I0
I1
I1
I0
I0
I1
I1
I1
I1
I1
I1
I1
I1
I0
I1
I1
I1
I0
I0
tp559
a(I1
I1
I1
I1
I0
I0
I1
I1
I1
I1
I1
I0
I1
I0
I0
I0
I1
I0
I1
I0
I0
I1
I0
I0
I1
I1
I0
I1
I1
I1
I1
I1
I0
I1
I1
I0
tp560
a(I1
I1
I0
I1
I0
I0
I1
I1
I1
I1
I1
I1
I0
I1
I0
I0
I0
I0
I0
I1
I0
I0
I0
I0
I1
I1
I1
I1
I1
I0
I1
I0
I1
I0
I0
I0
tp561
a(I1
I1
I1
I1
I1
I0
I0
I1
I1
I0
I1
I1
I1
I1
I1
I0
I0
I0
I1
I0
I0
I1
I0
I1
I1
I1
I0
I1
I0
I1
I1
I0
I0
I1
I1
I0
tp562
a(I1
I1
I1
I1
I1
I1
I0
I1
I1
I1
I0
I0
I1
I0
I1
I1
I0
I0
I0
I0
I0
I1
I0
I1
I1
I1
I0
I1
I1
I1
I1
I0
I0
I1
I0
I0
tp563
a(I1
I1
I1
I1
I1
I1
I1
I1
I1
I1
I1
I1
I1
I1
I1
I1
I0
I0
I1
I1
I0
I0
I1
I1
I0
I1
I1
I0
I1
I1
I1
I1
I0
I0
I1
I1
tp564
a(I0
I1
I1
I1
I0
I0
I0
I1
I0
I0
I1
I1
I1
I0
I1
I0
I0
I0
I1
I0
I0
I0
I1
I0
I1
I1
I1
I0
I1
I0
I1
I1
I0
I1
I1
I0
tp565
a(I1
I1
I1
I0
I0
I0
I0
I1
I1
I1
I1
I1
I0
I1
I1
I0
I0
I0
I0
I0
I0
I1
I0
I1
I0
I1
I1
I0
I1
I0
I0
I0
I0
I0
I0
I0
tp566
a(I0
I1
I1
I1
I0
I0
I1
I1
I1
I1
I1
I1
I0
I1
I1
I0
I0
I0
I1
I0
I0
I1
I0
I0
I1
I1
I1
I1
I1
I0
I0
I0
I0
I1
I1
I0
tp567
a(I1
I1
I1
I0
I0
I0
I1
I1
I1
I1
I0
I1
I1
I1
I0
I0
I0
I0
I1
I1
I1
I1
I0
I0
I1
I1
I1
I1
I0
I1
I1
I0
I0
I0
I0
I0
tp568
a(I0
I1
I1
I0
I0
I0
I1
I1
I1
I0
I1
I1
I1
I1
I1
I1
I0
I0
I1
I0
I0
I1
I1
I0
I1
I1
I1
I1
I0
I1
I0
I1
I0
I1
I0
I0
tp569
a(I1
I1
I1
I1
I0
I0
I1
I1
I1
I1
I1
I1
I0
I1
I1
I1
I0
I0
I1
I0
I0
I0
I0
I0
I0
I1
I0
I1
I0
I1
I0
I0
I0
I1
I0
I0
tp570
a(I1
I1
I0
I1
I0
I0
I1
I1
I1
I1
I1
I1
I1
I1
I1
I1
I0
I0
I0
I0
I0
I1
I1
I0
I0
I1
I0
I1
I1
I1
I1
I1
I1
I1
I0
I0
tp571
a(I1
I0
I1
I1
I0
I0
I1
I1
I1
I1
I1
I1
I1
I0
I0
I1
I0
I0
I0
I0
I0
I1
I0
I0
I1
I1
I1
I1
I1
I1
I0
I0
I0
I1
I1
I0
tp572
a(I1
I1
I1
I0
I0
I0
I1
I1
I0
I1
I1
I1
I1
I0
I0
I1
I0
I0
I1
I1
I0
I0
I0
I1
I0
I1
I1
I0
I1
I1
I0
I0
I0
I0
I1
I0
tp573
a(I1
I0
I1
I1
I0
I0
I1
I1
I1
I1
I1
I1
I1
I0
I0
I1
I0
I0
I0
I0
I0
I1
I0
I0
I1
I1
I1
I1
I1
I1
I0
I0
I0
I1
I1
I0
tp574
a(I1
I1
I0
I1
I0
I0
I1
I0
I1
I1
I0
I0
I1
I0
I1
I1
I1
I0
I1
I0
I0
I1
I0
I0
I1
I1
I1
I1
I0
I0
I0
I0
I0
I1
I0
I0
tp575
a(I1
I1
I1
I1
I1
I0
I1
I1
I1
I1
I1
I1
I1
I1
I0
I1
I0
I0
I1
I1
I1
I1
I0
I0
I1
I1
I1
I0
I0
I1
I1
I0
I0
I1
I0
I0
tp576
a(I0
I1
I1
I1
I0
I0
I1
I0
I1
I0
I1
I1
I1
I1
I0
I0
I0
I1
I1
I1
I0
I1
I0
I1
I1
I1
I1
I1
I1
I1
I1
I1
I0
I1
I1
I0
tp577
a(I1
I0
I1
I1
I1
I0
I1
I1
I1
I0
I1
I1
I1
I1
I1
I1
I0
I0
I0
I0
I0
I1
I1
I0
I1
I0
I1
I1
I1
I0
I1
I1
I1
I1
I1
I0
tp578
a(I1
I1
I0
I1
I0
I0
I1
I0
I1
I1
I0
I0
I1
I0
I1
I1
I1
I0
I1
I0
I0
I1
I0
I0
I1
I1
I1
I1
I0
I0
I0
I0
I0
I1
I0
I0
tp579
a(I1
I0
I1
I0
I0
I0
I1
I1
I1
I0
I1
I1
I1
I1
I1
I1
I0
I0
I1
I1
I0
I1
I0
I0
I0
I1
I0
I0
I1
I0
I1
I0
I0
I0
I0
I0
tp580
a(I0
I0
I1
I1
I0
I1
I1
I1
I1
I1
I0
I1
I0
I1
I1
I1
I0
I0
I1
I0
I0
I1
I0
I1
I0
I1
I1
I1
I1
I0
I1
I1
I1
I1
I1
I0
tp581
a(I1
I1
I1
I1
I1
I1
I1
I1
I1
I0
I1
I1
I1
I1
I1
I1
I0
I0
I1
I0
I0
I1
I1
I0
I0
I1
I1
I1
I1
I0
I0
I0
I0
I1
I0
I0
tp582
a(I1
I1
I1
I0
I0
I0
I1
I1
I0
I1
I1
I1
I1
I0
I0
I1
I0
I0
I1
I1
I0
I0
I0
I1
I0
I1
I1
I0
I1
I1
I0
I0
I0
I0
I1
I0
tp583
a(I1
I1
I0
I1
I0
I0
I1
I1
I1
I1
I1
I1
I0
I1
I0
I0
I0
I0
I0
I1
I0
I0
I0
I0
I1
I1
I1
I1
I1
I0
I1
I0
I1
I0
I0
I0
tp584
a(I1
I1
I1
I1
I0
I0
I1
I1
I1
I1
I1
I0
I1
I0
I0
I0
I1
I0
I1
I0
I0
I1
I0
I0
I1
I1
I0
I1
I1
I1
I1
I1
I0
I1
I1
I0
tp585
a(I1
I0
I1
I1
I0
I0
I1
I1
I1
I0
I0
I0
I1
I1
I1
I0
I0
I0
I0
I0
I1
I1
I0
I1
I0
I1
I1
I1
I1
I0
I0
I0
I0
I1
I1
I0
tp586
a(I1
I1
I1
I1
I0
I0
I0
I1
I1
I0
I1
I1
I1
I1
I0
I1
I0
I0
I1
I0
I1
I1
I0
I0
I0
I1
I1
I0
I0
I1
I1
I1
I0
I1
I0
I0
tp587
a(I1
I0
I1
I1
I0
I1
I1
I0
I0
I1
I1
I1
I1
I1
I1
I1
I1
I0
I1
I0
I0
I1
I0
I0
I1
I0
I0
I0
I1
I1
I0
I0
I0
I1
I1
I0
tp588
a(I1
I1
I1
I1
I0
I0
I1
I1
I1
I0
I0
I0
I1
I0
I1
I1
I0
I0
I1
I0
I0
I1
I0
I1
I1
I1
I1
I0
I0
I1
I0
I0
I0
I1
I0
I0
tp589
a(I1
I1
I1
I1
I0
I0
I0
I1
I1
I1
I1
I1
I1
I1
I0
I0
I0
I0
I1
I1
I0
I1
I1
I0
I1
I0
I0
I1
I0
I1
I1
I1
I0
I0
I1
I0
tp590
a(I1
I1
I1
I1
I0
I0
I1
I1
I1
I1
I0
I1
I1
I1
I1
I0
I0
I1
I1
I0
I0
I1
I1
I1
I1
I1
I1
I1
I1
I1
I1
I1
I0
I0
I0
I0
tp591
a(I0
I1
I0
I1
I1
I1
I1
I0
I1
I0
I0
I1
I1
I0
I1
I1
I1
I1
I1
I0
I0
I0
I1
I0
I1
I1
I0
I0
I1
I1
I1
I0
I0
I0
I1
I0
tp592
a(I1
I1
I0
I1
I0
I1
I1
I1
I1
I1
I1
I1
I1
I1
I0
I1
I0
I0
I1
I0
I0
I1
I0
I1
I1
I1
I1
I0
I1
I1
I0
I0
I1
I0
I0
I0
tp593
a(I1
I1
I1
I0
I0
I0
I1
I1
I1
I1
I1
I1
I1
I1
I1
I1
I0
I0
I1
I0
I1
I1
I0
I0
I0
I1
I1
I1
I0
I0
I1
I0
I0
I1
I1
I0
tp594
a(I0
I1
I1
I1
I0
I0
I1
I1
I1
I1
I1
I1
I1
I1
I1
I0
I0
I0
I0
I0
I1
I1
I0
I0
I0
I1
I0
I1
I0
I1
I1
I1
I0
I0
I0
I1
tp595
a(I1
I1
I1
I1
I0
I0
I1
I1
I1
I0
I0
I0
I1
I1
I1
I1
I0
I0
I1
I1
I0
I1
I1
I1
I1
I0
I0
I0
I1
I0
I1
I1
I0
I1
I0
I1
tp596
a(I1
I1
I0
I0
I0
I0
I1
I1
I0
I0
I1
I1
I1
I0
I1
I0
I0
I0
I1
I1
I0
I1
I0
I0
I1
I1
I1
I0
I1
I1
I1
I1
I0
I0
I1
I0
tp597
a(I1
I1
I1
I1
I0
I0
I0
I1
I1
I1
I1
I1
I1
I1
I0
I0
I0
I0
I1
I1
I0
I1
I1
I0
I1
I0
I0
I1
I0
I1
I1
I1
I0
I0
I1
I0
tp598
a(I1
I1
I0
I1
I0
I0
I1
I1
I0
I1
I0
I1
I0
I1
I1
I0
I0
I0
I1
I0
I0
I0
I0
I0
I1
I1
I1
I0
I0
I0
I1
I0
I0
I0
I0
I0
tp599
a(I0
I1
I1
I1
I0
I0
I1
I1
I1
I1
I1
I1
I1
I0
I1
I0
I0
I1
I1
I0
I0
I1
I0
I0
I1
I1
I1
I1
I1
I1
I1
I1
I0
I1
I1
I0
tp600
a(I1
I1
I1
I1
I1
I0
I1
I1
I1
I0
I1
I0
I1
I1
I1
I0
I0
I1
I0
I0
I0
I1
I0
I0
I0
I0
I1
I1
I0
I0
I1
I0
I0
I1
I0
I0
tp601
a(I1
I1
I1
I1
I0
I0
I1
I1
I1
I0
I1
I1
I0
I1
I1
I1
I0
I0
I1
I0
I1
I1
I0
I0
I1
I1
I0
I1
I1
I1
I1
I1
I0
I1
I0
I0
tp602
a(I1
I1
I1
I0
I0
I0
I0
I1
I0
I1
I1
I1
I1
I0
I1
I0
I0
I1
I1
I0
I0
I1
I0
I1
I0
I0
I1
I0
I1
I1
I1
I0
I0
I1
I0
I0
tp603
a(I1
I0
I1
I1
I0
I0
I1
I1
I1
I1
I1
I1
I0
I1
I1
I1
I1
I0
I1
I0
I0
I1
I0
I0
I1
I1
I0
I1
I0
I0
I1
I1
I1
I1
I0
I0
tp604
a(I1
I1
I1
I1
I0
I0
I1
I1
I0
I0
I0
I1
I1
I1
I1
I1
I1
I0
I1
I0
I0
I0
I1
I0
I1
I1
I1
I0
I1
I0
I0
I0
I0
I1
I1
I0
tp605
a(I1
I1
I1
I1
I1
I1
I1
I1
I1
I1
I1
I0
I1
I0
I1
I0
I0
I0
I0
I1
I1
I1
I0
I0
I1
I1
I1
I0
I1
I0
I1
I0
I0
I1
I1
I1
tp606
a(I1
I1
I1
I0
I0
I0
I1
I1
I1
I0
I1
I1
I1
I1
I0
I1
I1
I0
I1
I1
I0
I1
I1
I1
I1
I1
I1
I0
I1
I1
I1
I0
I0
I1
I1
I0
tp607
a(I1
I1
I1
I1
I0
I1
I1
I1
I1
I1
I1
I1
I0
I1
I0
I1
I1
I0
I1
I0
I0
I1
I0
I1
I1
I1
I1
I1
I0
I1
I0
I0
I0
I1
I0
I0
tp608
a(I1
I1
I1
I1
I0
I1
I0
I1
I0
I0
I0
I0
I1
I0
I1
I0
I0
I0
I1
I0
I1
I1
I0
I1
I0
I1
I1
I1
I1
I1
I1
I0
I0
I0
I0
I0
tp609
a(I0
I1
I1
I1
I1
I0
I1
I1
I0
I1
I1
I1
I1
I0
I1
I0
I0
I0
I1
I0
I0
I1
I0
I0
I0
I1
I0
I1
I0
I1
I0
I1
I1
I1
I0
I0
tp610
a(I1
I0
I1
I1
I0
I0
I1
I1
I1
I0
I1
I1
I0
I1
I0
I1
I0
I0
I1
I0
I0
I1
I0
I0
I1
I1
I1
I0
I1
I0
I1
I0
I0
I0
I1
I1
tp611
a(I1
I0
I1
I1
I0
I1
I1
I1
I0
I1
I1
I1
I1
I1
I1
I1
I0
I0
I1
I0
I1
I1
I0
I0
I1
I0
I1
I1
I0
I1
I1
I0
I1
I1
I1
I0
tp612
a(I0
I1
I1
I1
I0
I1
I1
I1
I1
I0
I1
I1
I1
I0
I1
I0
I0
I0
I0
I0
I0
I0
I0
I0
I0
I1
I0
I1
I1
I1
I0
I0
I0
I1
I1
I0
tp613
a(I0
I1
I1
I1
I1
I0
I1
I1
I1
I1
I1
I1
I1
I0
I1
I0
I0
I0
I0
I0
I1
I1
I0
I0
I0
I1
I0
I1
I0
I0
I1
I0
I0
I1
I0
I0
tp614
a(I0
I1
I1
I1
I1
I0
I1
I1
I1
I0
I1
I0
I1
I1
I0
I0
I0
I0
I1
I0
I1
I0
I0
I0
I0
I1
I1
I1
I0
I1
I1
I0
I1
I0
I0
I0
tp615
a(I1
I1
I0
I1
I1
I1
I0
I1
I1
I1
I1
I1
I1
I0
I1
I0
I0
I0
I1
I1
I1
I1
I0
I1
I1
I1
I1
I0
I0
I1
I1
I0
I0
I1
I0
I1
tp616
a(I1
I1
I1
I0
I0
I0
I0
I1
I0
I1
I1
I1
I1
I0
I1
I0
I0
I1
I1
I0
I0
I1
I0
I1
I0
I0
I1
I0
I1
I1
I1
I0
I0
I1
I0
I0
tp617
a(I1
I1
I0
I1
I0
I0
I1
I1
I0
I0
I1
I0
I1
I0
I1
I1
I0
I0
I0
I0
I0
I1
I0
I0
I1
I1
I1
I1
I0
I0
I1
I0
I0
I1
I0
I0
tp618
a(I1
I1
I1
I1
I0
I0
I1
I1
I1
I1
I1
I1
I1
I1
I1
I0
I0
I1
I1
I0
I0
I0
I0
I0
I1
I1
I0
I1
I1
I0
I1
I1
I1
I1
I1
I0
tp619
a(I1
I1
I1
I1
I0
I0
I1
I1
I1
I0
I1
I1
I0
I1
I1
I1
I0
I0
I1
I0
I1
I1
I0
I0
I1
I1
I0
I1
I1
I1
I1
I1
I0
I1
I0
I0
tp620
a(I1
I1
I1
I1
I0
I0
I1
I1
I1
I0
I1
I0
I0
I1
I0
I1
I1
I0
I1
I1
I0
I0
I0
I0
I0
I1
I1
I0
I0
I0
I1
I0
I0
I0
I1
I0
tp621
a(I1
I1
I1
I1
I1
I1
I0
I1
I1
I1
I1
I1
I1
I0
I0
I0
I0
I0
I1
I0
I0
I1
I0
I1
I0
I0
I0
I1
I1
I0
I0
I1
I0
I1
I0
I0
tp622
a(I1
I1
I0
I0
I0
I0
I0
I1
I1
I0
I0
I1
I1
I0
I1
I1
I0
I0
I1
I1
I1
I1
I0
I0
I1
I1
I1
I1
I0
I0
I0
I1
I0
I1
I0
I0
tp623
a(I1
I1
I1
I1
I0
I0
I1
I1
I1
I0
I1
I1
I0
I1
I1
I1
I0
I0
I1
I0
I1
I1
I0
I0
I1
I1
I0
I1
I1
I1
I1
I1
I0
I1
I0
I0
tp624
a(I1
I1
I1
I0
I0
I0
I0
I1
I0
I1
I1
I1
I1
I0
I1
I0
I0
I1
I1
I0
I0
I1
I0
I1
I0
I0
I1
I0
I1
I1
I1
I0
I0
I1
I0
I0
tp625
a(I1
I1
I1
I0
I0
I0
I1
I1
I0
I0
I1
I0
I1
I1
I0
I1
I0
I0
I1
I1
I1
I1
I0
I0
I0
I1
I1
I1
I0
I0
I0
I0
I0
I1
I1
I1
tp626
a(I1
I0
I1
I1
I0
I0
I1
I0
I1
I0
I0
I1
I1
I1
I0
I1
I1
I0
I1
I1
I1
I1
I0
I0
I1
I1
I0
I0
I0
I0
I1
I0
I1
I0
I0
I0
tp627
a(I0
I1
I1
I0
I0
I1
I1
I1
I0
I0
I0
I0
I1
I1
I1
I1
I1
I0
I1
I0
I0
I1
I0
I1
I1
I1
I1
I1
I0
I1
I0
I0
I0
I0
I0
I0
tp628
a(I1
I0
I0
I1
I0
I0
I0
I1
I0
I1
I1
I1
I1
I1
I1
I0
I0
I0
I0
I0
I1
I1
I1
I0
I1
I1
I1
I1
I0
I0
I0
I1
I0
I1
I0
I0
tp629
a(I1
I1
I1
I1
I0
I1
I1
I0
I1
I0
I1
I1
I1
I1
I1
I1
I1
I0
I1
I1
I0
I0
I1
I0
I1
I1
I1
I1
I1
I1
I1
I1
I0
I0
I1
I0
tp630
a(I1
I1
I1
I1
I0
I0
I1
I1
I0
I1
I1
I1
I1
I1
I1
I0
I0
I0
I1
I1
I1
I1
I0
I1
I1
I1
I1
I1
I1
I1
I1
I0
I0
I1
I0
I0
tp631
a(I1
I1
I1
I1
I1
I1
I1
I1
I1
I0
I0
I0
I1
I1
I0
I1
I0
I0
I1
I0
I1
I0
I1
I1
I1
I1
I1
I1
I1
I1
I1
I1
I0
I1
I0
I1
tp632
a(I1
I1
I1
I1
I0
I1
I0
I1
I1
I0
I1
I1
I1
I1
I1
I1
I0
I0
I0
I0
I1
I1
I0
I1
I0
I1
I1
I1
I1
I1
I1
I1
I0
I1
I1
I1
tp633
a(I0
I1
I1
I0
I0
I0
I0
I1
I0
I1
I1
I0
I1
I1
I1
I1
I0
I0
I1
I1
I0
I0
I1
I1
I0
I0
I0
I0
I1
I1
I0
I0
I0
I0
I1
I0
tp634
a(I1
I1
I1
I1
I1
I1
I1
I1
I1
I1
I0
I0
I1
I1
I1
I0
I0
I0
I1
I0
I0
I1
I0
I0
I1
I0
I1
I1
I0
I0
I0
I0
I0
I1
I0
I0
tp635
a(I1
I0
I0
I1
I1
I0
I0
I1
I0
I0
I1
I0
I1
I0
I0
I1
I0
I1
I1
I0
I0
I1
I0
I0
I1
I1
I1
I1
I0
I1
I0
I0
I0
I1
I0
I0
tp636
a(I1
I0
I1
I1
I0
I0
I0
I0
I1
I1
I1
I0
I1
I0
I1
I1
I0
I0
I1
I0
I0
I1
I1
I0
I1
I1
I1
I1
I1
I1
I1
I1
I0
I1
I1
I1
tp637
a(I1
I1
I1
I0
I0
I0
I0
I1
I1
I1
I1
I0
I1
I0
I1
I1
I0
I1
I0
I0
I0
I0
I0
I0
I1
I1
I1
I1
I0
I1
I0
I1
I1
I1
I0
I0
tp638
a(I0
I1
I1
I1
I1
I0
I1
I1
I0
I0
I1
I1
I1
I1
I1
I0
I0
I0
I0
I0
I1
I1
I0
I0
I0
I1
I0
I0
I0
I1
I0
I0
I1
I0
I0
I0
tp639
a(I0
I1
I1
I0
I0
I0
I0
I1
I0
I1
I1
I0
I1
I1
I1
I1
I0
I0
I1
I1
I0
I0
I1
I1
I0
I0
I0
I0
I1
I1
I0
I0
I0
I0
I1
I0
tp640
a(I1
I1
I1
I0
I0
I1
I1
I1
I1
I1
I1
I1
I1
I1
I1
I0
I0
I1
I1
I0
I0
I1
I0
I0
I1
I1
I1
I0
I1
I0
I0
I0
I1
I1
I0
I0
tp641
a(I1
I1
I1
I0
I0
I0
I1
I0
I1
I1
I1
I0
I1
I1
I1
I1
I0
I0
I1
I0
I0
I1
I0
I0
I1
I1
I1
I0
I1
I0
I0
I0
I0
I1
I1
I0
tp642
a(I1
I1
I1
I1
I1
I0
I1
I1
I1
I0
I1
I1
I0
I1
I1
I1
I0
I0
I0
I0
I0
I1
I0
I0
I1
I1
I1
I1
I0
I0
I1
I1
I0
I1
I1
I0
tp643
a(I1
I0
I0
I1
I0
I0
I1
I1
I1
I1
I1
I1
I1
I1
I1
I0
I0
I0
I1
I0
I0
I1
I0
I0
I0
I0
I0
I1
I0
I1
I1
I0
I0
I0
I0
I0
tp644
a(I1
I1
I0
I1
I0
I0
I1
I1
I1
I0
I0
I0
I1
I1
I1
I0
I1
I1
I0
I0
I0
I1
I0
I0
I1
I1
I0
I0
I0
I0
I1
I0
I1
I1
I0
I0
tp645
a(I1
I1
I1
I1
I0
I0
I1
I1
I0
I0
I0
I1
I1
I1
I1
I1
I1
I1
I1
I1
I0
I1
I0
I0
I0
I1
I1
I1
I1
I1
I0
I0
I0
I1
I0
I0
tp646
a(I1
I0
I0
I1
I1
I0
I0
I1
I0
I0
I1
I0
I1
I0
I0
I1
I0
I1
I1
I0
I0
I1
I0
I0
I1
I1
I1
I1
I0
I1
I0
I0
I0
I1
I0
I0
tp647
a(I1
I1
I1
I1
I0
I0
I1
I1
I0
I1
I1
I0
I1
I1
I1
I1
I0
I1
I1
I0
I0
I0
I1
I1
I1
I0
I1
I0
I1
I1
I0
I0
I0
I0
I0
I1
tp648
a(I1
I0
I0
I1
I0
I1
I0
I0
I0
I0
I1
I1
I0
I0
I1
I0
I1
I0
I1
I0
I0
I1
I0
I0
I1
I1
I0
I1
I0
I0
I1
I0
I0
I0
I0
I0
tp649
a(I1
I1
I1
I1
I1
I1
I1
I1
I1
I1
I0
I0
I1
I1
I1
I0
I0
I0
I1
I0
I0
I1
I0
I0
I1
I0
I1
I1
I0
I0
I0
I0
I0
I1
I0
I0
tp650
a(I1
I1
I1
I1
I0
I1
I0
I1
I1
I0
I1
I1
I1
I1
I1
I1
I0
I0
I0
I0
I1
I1
I0
I1
I0
I1
I1
I1
I1
I1
I1
I1
I0
I1
I1
I1
tp651
a(I0
I0
I1
I1
I0
I0
I0
I0
I1
I0
I1
I1
I1
I0
I1
I0
I0
I0
I1
I0
I0
I1
I1
I0
I0
I1
I1
I0
I1
I0
I1
I0
I0
I1
I1
I0
tp652
a(I1
I1
I1
I1
I1
I1
I1
I1
I1
I0
I0
I0
I1
I1
I0
I1
I0
I0
I1
I0
I1
I0
I1
I1
I1
I1
I1
I1
I1
I1
I1
I1
I0
I1
I0
I1
tp653
a(I1
I1
I1
I0
I0
I0
I1
I1
I1
I0
I0
I0
I1
I1
I1
I1
I0
I0
I0
I0
I0
I1
I0
I0
I0
I1
I1
I1
I1
I1
I1
I1
I0
I1
I1
I0
tp654
a(I1
I1
I1
I1
I1
I1
I1
I1
I1
I1
I1
I1
I1
I1
I1
I0
I0
I1
I1
I0
I1
I1
I0
I1
I1
I1
I1
I1
I1
I1
I0
I0
I1
I1
I1
I0
tp655
a(I1
I1
I1
I0
I0
I0
I1
I1
I1
I0
I0
I0
I1
I1
I1
I1
I0
I0
I0
I0
I0
I1
I0
I0
I0
I1
I1
I1
I1
I1
I1
I1
I0
I1
I1
I0
tp656
a(I1
I1
I1
I1
I1
I1
I1
I1
I1
I1
I1
I1
I1
I1
I1
I0
I0
I1
I1
I0
I1
I1
I0
I1
I1
I1
I1
I1
I1
I1
I0
I0
I1
I1
I1
I0
tp657
a(I1
I0
I0
I1
I0
I1
I1
I1
I0
I1
I1
I1
I1
I1
I1
I1
I0
I0
I1
I0
I0
I1
I0
I0
I0
I1
I1
I0
I0
I0
I0
I0
I0
I1
I0
I0
tp658
a(I1
I0
I1
I1
I0
I0
I1
I0
I1
I1
I1
I1
I1
I1
I0
I1
I1
I0
I1
I0
I0
I0
I1
I1
I1
I1
I0
I1
I0
I1
I0
I0
I0
I1
I0
I0
tp659
a(I1
I1
I1
I1
I0
I0
I1
I1
I0
I0
I0
I1
I0
I1
I1
I0
I0
I0
I1
I0
I1
I1
I0
I0
I1
I1
I0
I0
I1
I1
I1
I0
I0
I0
I1
I1
tp660
a(I1
I0
I1
I1
I0
I0
I1
I1
I1
I1
I1
I1
I1
I1
I1
I1
I0
I0
I1
I0
I0
I1
I1
I1
I0
I1
I0
I1
I1
I0
I0
I0
I0
I0
I0
I0
tp661
a(I1
I1
I1
I1
I0
I1
I1
I1
I1
I1
I1
I1
I1
I1
I1
I0
I1
I0
I0
I0
I0
I1
I0
I1
I1
I1
I1
I0
I1
I1
I0
I1
I0
I1
I1
I0
tp662
a(I1
I1
I1
I1
I0
I0
I0
I1
I1
I1
I1
I0
I1
I1
I1
I0
I0
I0
I1
I0
I1
I1
I0
I0
I1
I1
I1
I1
I1
I0
I1
I1
I0
I1
I0
I0
tp663
a(I0
I0
I1
I0
I1
I0
I0
I1
I1
I0
I0
I1
I1
I1
I1
I0
I0
I1
I1
I0
I0
I0
I0
I0
I1
I1
I1
I1
I1
I0
I1
I0
I1
I1
I1
I0
tp664
a(I1
I0
I0
I1
I1
I1
I0
I0
I1
I1
I1
I1
I1
I1
I1
I0
I0
I0
I1
I0
I0
I1
I0
I1
I1
I1
I1
I0
I1
I0
I1
I1
I1
I0
I0
I1
tp665
a(I1
I1
I1
I1
I0
I0
I1
I1
I1
I1
I1
I1
I1
I0
I0
I1
I0
I0
I1
I0
I0
I1
I1
I1
I0
I1
I1
I0
I1
I1
I0
I0
I0
I1
I1
I0
tp666
a(I0
I1
I0
I1
I0
I0
I1
I1
I1
I0
I0
I0
I1
I1
I0
I0
I0
I1
I1
I0
I0
I1
I0
I0
I0
I1
I1
I0
I0
I0
I1
I0
I0
I1
I0
I0
tp667
a(I1
I1
I0
I0
I0
I0
I1
I1
I0
I0
I1
I1
I1
I1
I1
I1
I0
I0
I1
I0
I0
I1
I0
I0
I0
I0
I0
I1
I1
I1
I1
I0
I0
I0
I1
I0
tp668
a(I1
I1
I0
I1
I0
I0
I1
I0
I1
I1
I1
I1
I1
I0
I0
I0
I0
I0
I1
I1
I1
I1
I0
I0
I0
I1
I1
I1
I1
I0
I0
I1
I0
I1
I0
I0
tp669
a(I1
I1
I0
I1
I0
I0
I0
I1
I0
I1
I0
I0
I1
I1
I0
I0
I0
I0
I1
I0
I0
I0
I0
I0
I1
I1
I1
I1
I1
I0
I0
I0
I0
I1
I0
I0
tp670
a(I1
I1
I1
I1
I0
I0
I1
I0
I1
I1
I1
I1
I0
I1
I1
I1
I0
I0
I1
I0
I0
I1
I0
I1
I0
I1
I0
I1
I1
I1
I1
I1
I0
I1
I0
I0
tp671
a(I1
I0
I1
I1
I0
I0
I1
I1
I1
I0
I1
I1
I1
I0
I1
I1
I0
I0
I1
I0
I0
I1
I0
I1
I1
I1
I1
I1
I1
I1
I1
I0
I1
I1
I0
I0
tp672
a(I1
I1
I1
I1
I0
I0
I1
I1
I1
I0
I1
I1
I1
I1
I1
I1
I1
I0
I1
I0
I0
I1
I0
I0
I0
I1
I1
I0
I1
I0
I1
I0
I0
I1
I0
I0
tp673
a(I1
I1
I1
I0
I0
I0
I0
I1
I0
I1
I1
I1
I0
I1
I1
I1
I0
I0
I1
I0
I1
I0
I0
I0
I1
I0
I0
I0
I0
I1
I0
I0
I0
I0
I0
I1
tp674
a(I1
I1
I0
I1
I0
I0
I1
I1
I1
I1
I1
I1
I1
I1
I1
I0
I0
I0
I0
I0
I0
I0
I0
I1
I0
I1
I1
I1
I0
I0
I1
I1
I0
I1
I0
I0
tp675
a(I1
I0
I1
I0
I0
I0
I1
I0
I1
I1
I1
I1
I1
I1
I1
I0
I1
I0
I1
I1
I0
I1
I1
I1
I0
I1
I1
I1
I1
I1
I1
I1
I0
I1
I0
I0
tp676
a(I1
I1
I1
I1
I0
I0
I1
I1
I1
I0
I1
I1
I1
I1
I1
I0
I1
I0
I1
I0
I0
I1
I0
I0
I0
I0
I0
I1
I0
I1
I1
I0
I0
I0
I0
I0
tp677
a(I1
I1
I1
I1
I0
I0
I1
I1
I1
I1
I1
I1
I1
I1
I1
I1
I1
I0
I0
I0
I1
I1
I1
I0
I0
I0
I0
I1
I0
I1
I1
I0
I0
I0
I0
I1
tp678
a(I1
I1
I1
I1
I0
I0
I1
I1
I1
I1
I1
I1
I0
I0
I1
I1
I0
I0
I1
I0
I0
I1
I0
I0
I0
I1
I1
I1
I1
I0
I1
I0
I0
I1
I0
I0
tp679
a(I1
I1
I0
I1
I0
I1
I0
I1
I1
I0
I1
I1
I0
I0
I1
I1
I1
I0
I0
I0
I0
I1
I1
I1
I1
I1
I1
I0
I1
I0
I0
I0
I0
I0
I0
I0
tp680
a(I1
I0
I1
I1
I0
I1
I1
I1
I1
I0
I0
I1
I1
I1
I0
I1
I0
I0
I1
I1
I1
I1
I1
I1
I0
I0
I1
I1
I1
I0
I0
I0
I1
I1
I0
I0
tp681
a(I1
I1
I0
I1
I0
I0
I0
I1
I0
I1
I0
I0
I1
I1
I0
I0
I0
I0
I1
I0
I0
I0
I0
I0
I1
I1
I1
I1
I1
I0
I0
I0
I0
I1
I0
I0
tp682
a(I1
I0
I1
I0
I0
I0
I1
I1
I1
I0
I0
I1
I0
I1
I1
I0
I0
I0
I0
I0
I1
I0
I1
I1
I0
I1
I1
I1
I0
I1
I1
I0
I0
I1
I0
I0
tp683
a(I1
I1
I0
I1
I0
I0
I1
I1
I1
I1
I1
I1
I1
I1
I1
I0
I0
I0
I0
I0
I0
I0
I0
I1
I0
I1
I1
I1
I0
I0
I1
I1
I0
I1
I0
I0
tp684
a(I1
I1
I1
I0
I0
I0
I0
I1
I0
I1
I1
I1
I0
I1
I1
I1
I0
I0
I1
I0
I1
I0
I0
I0
I1
I0
I0
I0
I0
I1
I0
I0
I0
I0
I0
I1
tp685
a(I1
I1
I1
I1
I0
I0
I1
I0
I1
I1
I1
I1
I0
I1
I1
I1
I0
I0
I1
I0
I0
I1
I0
I1
I0
I1
I0
I1
I1
I1
I1
I1
I0
I1
I0
I0
tp686
a(I1
I1
I1
I1
I0
I0
I1
I1
I1
I0
I1
I1
I1
I1
I1
I0
I1
I0
I1
I0
I0
I1
I0
I0
I0
I0
I0
I1
I0
I1
I1
I0
I0
I0
I0
I0
tp687
a(I1
I1
I1
I1
I0
I0
I1
I1
I1
I0
I1
I1
I1
I1
I1
I1
I1
I0
I1
I0
I0
I1
I0
I0
I0
I1
I1
I0
I1
I0
I1
I0
I0
I1
I0
I0
tp688
a(I1
I0
I1
I1
I0
I0
I1
I1
I1
I0
I1
I1
I1
I0
I1
I1
I0
I0
I1
I0
I0
I1
I0
I1
I1
I1
I1
I1
I1
I1
I1
I0
I1
I1
I0
I0
tp689
a(I1
I1
I1
I1
I0
I0
I1
I0
I1
I1
I1
I1
I1
I0
I0
I1
I1
I0
I1
I0
I1
I1
I1
I1
I0
I0
I1
I1
I1
I1
I0
I0
I0
I1
I0
I1
tp690
a(I1
I1
I0
I1
I0
I1
I1
I1
I1
I1
I1
I1
I0
I1
I0
I1
I0
I0
I0
I0
I1
I1
I0
I1
I0
I1
I0
I1
I1
I0
I0
I0
I0
I1
I0
I0
tp691
a(I1
I1
I1
I1
I0
I0
I0
I1
I1
I1
I1
I1
I1
I1
I1
I1
I0
I0
I0
I0
I1
I1
I1
I0
I1
I1
I1
I0
I1
I1
I1
I0
I0
I1
I1
I0
tp692
a(I1
I0
I0
I0
I0
I0
I0
I1
I1
I0
I1
I0
I0
I1
I0
I1
I1
I0
I1
I0
I0
I1
I0
I1
I0
I0
I1
I1
I1
I0
I1
I1
I0
I0
I0
I0
tp693
a(I1
I1
I1
I1
I1
I0
I1
I0
I0
I1
I1
I1
I1
I1
I1
I1
I0
I0
I1
I0
I0
I1
I0
I1
I1
I1
I1
I0
I1
I1
I1
I0
I0
I0
I0
I0
tp694
a(I1
I1
I1
I1
I0
I0
I1
I1
I1
I0
I1
I1
I1
I1
I1
I0
I1
I0
I1
I0
I0
I1
I0
I0
I0
I0
I0
I1
I0
I1
I1
I0
I0
I0
I0
I0
tp695
a(I1
I1
I0
I1
I0
I0
I1
I1
I1
I1
I1
I1
I1
I1
I1
I0
I0
I0
I0
I0
I0
I0
I0
I1
I0
I1
I1
I1
I0
I0
I1
I1
I0
I1
I0
I0
tp696
a(I1
I1
I1
I1
I0
I0
I1
I1
I1
I0
I1
I1
I1
I1
I1
I1
I1
I0
I1
I0
I0
I1
I0
I0
I0
I1
I1
I0
I1
I0
I1
I0
I0
I1
I0
I0
tp697
a(I1
I0
I1
I1
I0
I0
I1
I1
I1
I0
I1
I1
I1
I0
I1
I1
I0
I0
I1
I0
I0
I1
I0
I1
I1
I1
I1
I1
I1
I1
I1
I0
I1
I1
I0
I0
tp698
a(I1
I1
I1
I1
I1
I0
I0
I1
I0
I0
I0
I0
I1
I1
I1
I0
I0
I1
I1
I0
I0
I1
I0
I1
I1
I1
I1
I1
I1
I1
I0
I0
I1
I1
I0
I0
tp699
a(I1
I1
I1
I1
I0
I0
I0
I1
I0
I1
I1
I1
I0
I0
I0
I0
I0
I0
I1
I0
I0
I1
I1
I1
I1
I1
I0
I0
I1
I1
I0
I0
I0
I0
I1
I1
tp700
a(I1
I1
I1
I1
I0
I0
I1
I1
I1
I0
I0
I1
I1
I1
I0
I0
I1
I0
I0
I0
I0
I1
I0
I0
I0
I1
I1
I1
I1
I1
I1
I0
I0
I0
I0
I0
tp701
a(I1
I1
I0
I0
I0
I0
I1
I1
I0
I1
I0
I1
I1
I1
I1
I0
I0
I0
I1
I0
I0
I1
I0
I1
I0
I1
I1
I1
I0
I0
I1
I0
I0
I1
I0
I0
tp702
a(I1
I1
I0
I0
I0
I1
I1
I1
I1
I0
I0
I1
I1
I1
I1
I1
I1
I0
I0
I0
I0
I1
I1
I0
I0
I1
I1
I1
I1
I1
I1
I0
I1
I1
I1
I1
tp703
a(I0
I1
I1
I1
I0
I0
I1
I0
I1
I0
I0
I0
I1
I1
I0
I1
I0
I0
I1
I1
I1
I1
I1
I0
I1
I1
I1
I0
I1
I1
I0
I0
I0
I1
I0
I0
tp704
a(I0
I0
I1
I0
I0
I1
I1
I1
I1
I0
I0
I0
I1
I1
I0
I1
I0
I0
I0
I0
I0
I1
I0
I0
I1
I0
I0
I1
I0
I0
I1
I0
I0
I0
I0
I0
tp705
a(I1
I0
I0
I0
I0
I0
I1
I1
I0
I1
I1
I1
I1
I1
I1
I1
I0
I0
I1
I0
I0
I1
I0
I1
I1
I1
I1
I1
I0
I0
I0
I0
I0
I1
I0
I0
tp706
a(I0
I1
I0
I0
I0
I0
I1
I0
I0
I1
I1
I1
I1
I1
I1
I0
I0
I0
I1
I0
I0
I0
I0
I0
I0
I1
I1
I0
I0
I0
I0
I0
I0
I1
I0
I0
tp707
a(I1
I1
I1
I0
I0
I0
I0
I1
I0
I1
I1
I1
I0
I1
I1
I1
I0
I0
I1
I0
I1
I0
I0
I0
I1
I0
I0
I0
I0
I1
I0
I0
I0
I0
I0
I1
tp708
a(I1
I1
I0
I1
I0
I0
I0
I1
I0
I1
I0
I0
I1
I1
I0
I0
I0
I0
I1
I0
I0
I0
I0
I0
I1
I1
I1
I1
I1
I0
I0
I0
I0
I1
I0
I0
tp709
a(I1
I1
I0
I1
I0
I0
I1
I0
I1
I1
I1
I1
I1
I0
I0
I0
I0
I0
I1
I1
I1
I1
I0
I0
I0
I1
I1
I1
I1
I0
I0
I1
I0
I1
I0
I0
tp710
a(I0
I1
I1
I1
I0
I0
I1
I1
I1
I0
I0
I0
I1
I1
I1
I1
I1
I0
I1
I1
I1
I1
I0
I0
I0
I1
I1
I0
I1
I0
I0
I0
I0
I1
I1
I0
tp711
a(I0
I1
I1
I1
I1
I1
I1
I1
I1
I0
I1
I0
I1
I1
I1
I1
I1
I0
I1
I0
I1
I1
I1
I0
I1
I0
I0
I0
I1
I1
I0
I0
I1
I1
I1
I0
tp712
a(I1
I1
I1
I1
I0
I0
I0
I1
I1
I1
I1
I1
I1
I1
I1
I1
I0
I0
I0
I0
I1
I1
I1
I0
I1
I1
I1
I0
I1
I1
I1
I0
I0
I1
I1
I0
tp713
a(I1
I1
I1
I0
I1
I1
I1
I1
I1
I1
I1
I1
I1
I1
I1
I0
I0
I0
I1
I0
I1
I1
I0
I0
I1
I1
I1
I0
I1
I0
I0
I0
I0
I0
I0
I0
tp714
a(I1
I0
I0
I0
I0
I0
I0
I1
I1
I0
I1
I0
I0
I1
I0
I1
I1
I0
I1
I0
I0
I1
I0
I1
I0
I0
I1
I1
I1
I0
I1
I1
I0
I0
I0
I0
tp715
a(I1
I0
I1
I1
I0
I0
I1
I1
I1
I1
I1
I1
I1
I1
I0
I0
I0
I0
I0
I0
I1
I1
I1
I1
I1
I1
I0
I0
I1
I0
I1
I0
I0
I0
I0
I0
tp716
a(I1
I1
I1
I0
I0
I0
I1
I1
I1
I1
I1
I0
I0
I1
I1
I0
I0
I0
I1
I0
I0
I1
I0
I1
I0
I0
I1
I1
I1
I1
I1
I1
I0
I1
I1
I1
tp717
a(I1
I0
I1
I1
I1
I1
I1
I1
I1
I0
I1
I1
I1
I1
I1
I0
I0
I0
I1
I1
I0
I0
I0
I0
I0
I0
I1
I0
I1
I1
I1
I0
I0
I0
I0
I0
tp718
a(I0
I1
I1
I1
I0
I0
I1
I1
I1
I1
I1
I1
I1
I1
I1
I0
I0
I0
I1
I0
I0
I1
I0
I1
I0
I1
I0
I0
I1
I1
I0
I0
I0
I1
I0
I0
tp719
a(I0
I1
I1
I1
I0
I0
I0
I1
I0
I0
I0
I1
I1
I1
I1
I1
I1
I0
I1
I0
I0
I1
I0
I1
I1
I1
I1
I1
I1
I1
I1
I0
I0
I0
I1
I1
tp720
a(I1
I1
I0
I0
I0
I0
I1
I1
I1
I1
I1
I1
I1
I1
I0
I1
I0
I0
I1
I0
I0
I1
I0
I0
I0
I1
I1
I1
I0
I0
I1
I0
I0
I0
I0
I1
tp721
a(I1
I1
I1
I1
I0
I0
I1
I1
I1
I1
I1
I0
I0
I1
I1
I0
I0
I0
I1
I0
I1
I1
I0
I1
I0
I1
I1
I0
I1
I1
I0
I0
I0
I1
I1
I0
tp722
a(I0
I1
I1
I1
I0
I0
I0
I0
I0
I1
I1
I0
I1
I0
I1
I0
I0
I0
I1
I0
I1
I1
I1
I0
I1
I1
I1
I1
I1
I1
I0
I0
I0
I1
I0
I0
tp723
a(I1
I0
I1
I1
I0
I0
I1
I1
I1
I1
I1
I0
I1
I1
I1
I1
I0
I0
I1
I0
I0
I1
I1
I1
I1
I1
I1
I0
I1
I1
I1
I0
I0
I0
I1
I0
tp724
a(I1
I1
I1
I0
I0
I0
I1
I0
I1
I1
I0
I1
I0
I1
I1
I1
I1
I0
I1
I0
I1
I1
I0
I1
I0
I0
I0
I0
I0
I1
I1
I0
I0
I1
I1
I0
tp725
a(I1
I0
I1
I1
I1
I1
I1
I0
I1
I1
I1
I1
I1
I1
I1
I0
I0
I1
I1
I0
I0
I1
I0
I0
I0
I1
I1
I0
I1
I1
I1
I1
I0
I0
I0
I0
tp726
a(I0
I0
I1
I1
I0
I0
I1
I0
I1
I0
I1
I1
I1
I0
I1
I1
I0
I0
I1
I1
I0
I1
I0
I1
I0
I1
I1
I1
I1
I1
I1
I0
I0
I0
I0
I0
tp727
a(I1
I0
I1
I1
I0
I0
I1
I1
I1
I0
I0
I1
I1
I1
I1
I0
I0
I0
I1
I0
I0
I1
I1
I1
I1
I1
I1
I1
I1
I1
I1
I1
I0
I1
I0
I0
tp728
a(I1
I1
I1
I1
I1
I1
I1
I1
I0
I1
I1
I1
I0
I1
I1
I1
I1
I0
I1
I0
I0
I1
I0
I1
I1
I1
I1
I0
I0
I0
I0
I1
I0
I0
I0
I0
tp729
a(I1
I1
I1
I1
I0
I0
I1
I0
I1
I1
I0
I1
I1
I1
I1
I0
I1
I0
I0
I0
I1
I1
I0
I0
I0
I0
I1
I1
I0
I1
I1
I1
I0
I0
I1
I0
tp730
a(I1
I1
I1
I1
I0
I1
I0
I1
I0
I0
I1
I0
I1
I1
I1
I1
I0
I0
I1
I0
I0
I1
I0
I1
I0
I1
I1
I0
I0
I1
I1
I0
I1
I1
I0
I0
tp731
a(I1
I1
I1
I1
I0
I0
I1
I1
I1
I1
I1
I0
I0
I1
I1
I0
I0
I1
I1
I0
I0
I1
I0
I1
I1
I1
I1
I0
I0
I1
I1
I0
I1
I1
I1
I0
tp732
a(I1
I1
I1
I1
I0
I0
I1
I1
I0
I0
I1
I1
I1
I1
I1
I0
I0
I0
I1
I0
I0
I1
I0
I0
I0
I1
I0
I1
I0
I1
I1
I1
I0
I1
I0
I1
tp733
a(I1
I1
I0
I1
I0
I0
I1
I1
I1
I0
I1
I0
I1
I1
I1
I0
I0
I0
I1
I0
I0
I1
I0
I0
I0
I0
I1
I0
I0
I0
I1
I1
I0
I1
I0
I0
tp734
a(I1
I0
I1
I0
I0
I0
I0
I0
I1
I0
I0
I1
I1
I1
I1
I1
I0
I0
I1
I0
I1
I1
I0
I1
I1
I1
I1
I1
I1
I1
I1
I1
I0
I0
I0
I0
tp735
a(I1
I0
I1
I1
I0
I1
I1
I1
I1
I0
I1
I1
I1
I1
I1
I1
I0
I0
I1
I0
I0
I1
I0
I1
I1
I1
I0
I1
I1
I1
I0
I0
I0
I1
I1
I0
tp736
a(I1
I1
I1
I1
I0
I0
I0
I1
I1
I0
I0
I0
I1
I1
I1
I0
I0
I0
I1
I0
I1
I1
I0
I0
I1
I0
I1
I1
I1
I1
I0
I0
I0
I0
I1
I0
tp737
a(I1
I1
I1
I1
I0
I0
I1
I1
I1
I1
I1
I0
I0
I1
I1
I0
I0
I0
I0
I0
I1
I1
I0
I1
I0
I1
I1
I0
I0
I1
I0
I0
I0
I0
I0
I0
tp738
a(I1
I1
I1
I1
I1
I1
I0
I0
I1
I0
I1
I1
I1
I1
I0
I1
I0
I0
I0
I1
I0
I1
I0
I0
I0
I1
I1
I1
I1
I0
I0
I0
I0
I1
I0
I1
tp739
a(I1
I1
I1
I1
I0
I0
I1
I0
I1
I1
I1
I1
I0
I1
I0
I1
I0
I0
I1
I0
I1
I1
I1
I1
I0
I1
I1
I1
I1
I1
I1
I0
I0
I1
I0
I0
tp740
a(I1
I0
I1
I1
I1
I1
I0
I0
I1
I1
I1
I1
I1
I1
I1
I1
I0
I0
I0
I0
I0
I1
I0
I0
I1
I1
I1
I1
I1
I1
I1
I1
I0
I0
I0
I0
tp741
a(I1
I1
I1
I0
I0
I0
I0
I0
I1
I1
I1
I1
I1
I1
I1
I1
I0
I0
I1
I1
I0
I1
I0
I1
I1
I1
I1
I1
I0
I1
I0
I0
I0
I1
I0
I1
tp742
a(I1
I1
I1
I1
I0
I0
I1
I1
I0
I1
I1
I1
I1
I1
I1
I0
I1
I0
I1
I1
I1
I1
I0
I1
I0
I1
I0
I0
I1
I1
I1
I1
I0
I0
I1
I0
tp743
a(I0
I1
I1
I1
I1
I1
I1
I1
I1
I0
I0
I0
I1
I1
I1
I1
I1
I0
I1
I0
I0
I1
I0
I0
I1
I1
I1
I1
I0
I1
I1
I0
I0
I1
I0
I0
tp744
a(I1
I1
I1
I1
I0
I0
I1
I1
I1
I1
I1
I0
I1
I1
I1
I1
I1
I0
I1
I1
I0
I1
I0
I1
I1
I0
I1
I0
I0
I1
I1
I0
I0
I0
I0
I0
tp745
a(I1
I1
I1
I1
I0
I0
I1
I1
I1
I1
I1
I1
I1
I0
I1
I1
I1
I1
I1
I0
I1
I1
I0
I1
I1
I1
I0
I1
I0
I1
I1
I1
I0
I1
I0
I0
tp746
a(I1
I1
I0
I1
I1
I0
I1
I1
I1
I1
I1
I1
I1
I1
I1
I1
I0
I0
I1
I0
I1
I1
I0
I0
I1
I1
I1
I1
I0
I0
I0
I0
I0
I1
I0
I0
tp747
a(I1
I0
I0
I1
I1
I0
I1
I1
I1
I0
I1
I1
I1
I0
I0
I1
I0
I0
I1
I0
I0
I1
I0
I0
I1
I1
I1
I1
I0
I1
I0
I0
I0
I1
I1
I1
tp748
a(I1
I1
I1
I1
I0
I0
I0
I1
I1
I1
I1
I1
I1
I1
I1
I1
I1
I0
I1
I1
I1
I1
I0
I1
I1
I1
I1
I0
I1
I1
I0
I0
I0
I1
I0
I0
tp749
a(I1
I1
I1
I1
I0
I0
I1
I0
I1
I1
I1
I1
I1
I1
I1
I1
I0
I0
I0
I0
I1
I0
I0
I0
I0
I0
I0
I1
I0
I1
I0
I0
I1
I1
I0
I0
tp750
a(I1
I1
I0
I1
I0
I0
I1
I0
I1
I0
I0
I1
I0
I1
I1
I0
I0
I0
I1
I1
I0
I1
I0
I0
I0
I1
I1
I1
I0
I1
I0
I0
I0
I1
I1
I0
tp751
a(I0
I1
I0
I1
I1
I0
I1
I1
I0
I1
I1
I1
I0
I1
I0
I0
I0
I0
I1
I0
I0
I1
I1
I0
I1
I1
I1
I0
I1
I1
I1
I0
I0
I0
I1
I0
tp752
a(I1
I1
I1
I0
I0
I0
I1
I1
I1
I1
I1
I0
I1
I1
I1
I0
I0
I0
I1
I1
I1
I1
I0
I1
I1
I1
I1
I1
I1
I1
I0
I0
I0
I1
I1
I1
tp753
a(I1
I1
I1
I0
I0
I0
I1
I1
I1
I0
I1
I0
I1
I1
I1
I1
I0
I0
I1
I0
I0
I0
I1
I0
I1
I0
I1
I1
I1
I1
I1
I0
I0
I1
I1
I0
tp754
a(I1
I1
I1
I1
I0
I0
I1
I1
I1
I0
I1
I0
I1
I1
I1
I1
I0
I1
I1
I0
I0
I1
I0
I0
I1
I1
I0
I0
I1
I0
I1
I0
I0
I1
I1
I0
tp755
a(I1
I0
I1
I1
I1
I0
I1
I1
I1
I0
I0
I0
I0
I1
I1
I0
I1
I1
I0
I0
I0
I1
I0
I0
I1
I1
I0
I0
I0
I0
I1
I0
I0
I0
I0
I0
tp756
a(I1
I1
I0
I1
I0
I0
I1
I0
I1
I1
I1
I0
I1
I1
I0
I1
I0
I0
I0
I0
I1
I1
I1
I1
I1
I1
I0
I1
I0
I1
I1
I0
I0
I0
I0
I0
tp757
a(I1
I1
I1
I1
I1
I1
I1
I1
I1
I0
I1
I0
I0
I1
I1
I1
I1
I0
I0
I0
I0
I1
I0
I0
I1
I1
I1
I1
I0
I0
I1
I1
I0
I1
I0
I0
tp758
a(I1
I0
I0
I1
I1
I1
I1
I1
I1
I0
I1
I1
I0
I1
I1
I0
I0
I0
I0
I0
I0
I1
I0
I1
I1
I1
I1
I1
I1
I1
I1
I0
I0
I1
I1
I0
tp759
a(I1
I0
I1
I0
I0
I0
I1
I1
I0
I0
I0
I1
I0
I1
I1
I0
I0
I0
I0
I0
I0
I1
I1
I0
I1
I1
I1
I0
I0
I0
I0
I0
I0
I0
I0
I0
tp760
a(I1
I1
I1
I1
I0
I0
I0
I1
I1
I1
I1
I1
I1
I0
I1
I0
I0
I0
I1
I0
I0
I0
I1
I0
I1
I1
I1
I1
I1
I0
I0
I0
I1
I1
I0
I0
tp761
a(I1
I1
I1
I1
I0
I0
I1
I1
I1
I1
I1
I1
I1
I0
I1
I1
I1
I1
I1
I0
I1
I1
I0
I1
I1
I1
I0
I1
I0
I1
I1
I1
I0
I1
I0
I0
tp762
a(I1
I1
I1
I1
I0
I0
I1
I1
I1
I0
I1
I0
I0
I1
I0
I0
I0
I0
I0
I0
I0
I1
I1
I0
I1
I1
I1
I1
I1
I0
I1
I0
I0
I0
I1
I0
tp763
a(I1
I1
I1
I0
I0
I0
I1
I0
I0
I1
I1
I1
I1
I0
I0
I1
I0
I1
I1
I0
I0
I1
I1
I0
I0
I1
I1
I0
I1
I1
I1
I0
I0
I0
I1
I0
tp764
a(I1
I1
I0
I1
I0
I0
I1
I1
I1
I0
I1
I1
I0
I1
I0
I1
I0
I0
I1
I1
I0
I1
I0
I0
I0
I1
I1
I0
I1
I0
I0
I0
I0
I0
I1
I0
tp765
a(I1
I0
I1
I0
I1
I1
I0
I1
I0
I1
I1
I1
I1
I1
I1
I0
I1
I0
I1
I0
I0
I0
I1
I0
I1
I1
I1
I1
I1
I0
I1
I1
I1
I1
I0
I0
tp766
a(I1
I1
I1
I1
I1
I1
I1
I0
I1
I1
I1
I1
I1
I1
I0
I1
I0
I0
I1
I0
I0
I1
I0
I0
I1
I1
I1
I1
I0
I1
I1
I0
I1
I1
I0
I0
tp767
a(I1
I1
I1
I1
I0
I0
I1
I1
I1
I0
I1
I0
I1
I1
I1
I1
I0
I1
I1
I0
I0
I1
I0
I0
I1
I1
I0
I0
I1
I0
I1
I0
I0
I1
I1
I0
tp768
a(I1
I1
I1
I0
I0
I1
I1
I1
I1
I1
I0
I0
I0
I1
I1
I0
I1
I0
I0
I0
I1
I0
I0
I0
I1
I1
I0
I0
I1
I0
I1
I0
I0
I0
I0
I1
tp769
a(I1
I0
I1
I1
I0
I0
I1
I1
I0
I1
I1
I1
I0
I1
I1
I1
I1
I0
I1
I0
I0
I1
I1
I0
I1
I1
I1
I0
I1
I1
I0
I0
I0
I1
I1
I1
tp770
a(I1
I1
I1
I0
I0
I0
I1
I0
I1
I1
I1
I0
I1
I1
I0
I1
I0
I0
I1
I0
I0
I1
I1
I0
I0
I1
I0
I1
I1
I0
I0
I0
I0
I0
I0
I0
tp771
a(I1
I1
I1
I1
I0
I0
I1
I1
I1
I0
I1
I1
I1
I1
I1
I0
I0
I0
I1
I0
I1
I1
I1
I0
I0
I1
I1
I0
I1
I1
I1
I0
I0
I0
I0
I0
tp772
a(I1
I0
I0
I0
I0
I0
I1
I1
I0
I1
I0
I1
I1
I1
I0
I1
I1
I0
I1
I0
I1
I1
I0
I0
I1
I1
I1
I1
I1
I0
I0
I0
I1
I0
I0
I0
tp773
a(I1
I1
I1
I1
I1
I0
I1
I1
I1
I0
I1
I1
I1
I0
I0
I0
I0
I0
I1
I0
I1
I1
I0
I0
I1
I1
I1
I1
I1
I1
I1
I0
I0
I1
I0
I1
tp774
a(I0
I1
I1
I1
I0
I0
I1
I1
I1
I1
I0
I0
I0
I1
I1
I1
I0
I0
I1
I0
I1
I1
I0
I1
I1
I0
I1
I0
I0
I1
I0
I0
I0
I1
I1
I0
tp775
a(I0
I1
I1
I1
I0
I0
I1
I1
I1
I1
I1
I1
I1
I1
I1
I1
I0
I0
I1
I0
I0
I1
I0
I0
I1
I1
I0
I1
I1
I0
I1
I1
I0
I0
I0
I0
tp776
a(I1
I0
I1
I1
I0
I1
I1
I0
I1
I1
I1
I0
I0
I1
I1
I0
I0
I0
I1
I1
I0
I1
I1
I1
I1
I1
I1
I1
I1
I1
I0
I0
I0
I1
I0
I0
tp777
a(I1
I1
I1
I1
I0
I0
I1
I1
I1
I0
I0
I0
I1
I1
I1
I1
I1
I0
I1
I0
I0
I1
I1
I0
I0
I1
I1
I0
I1
I1
I1
I0
I0
I1
I0
I1
tp778
a(I1
I0
I1
I1
I0
I0
I1
I1
I1
I0
I0
I0
I0
I1
I0
I0
I0
I0
I1
I0
I1
I1
I0
I0
I0
I1
I1
I1
I1
I0
I1
I1
I0
I0
I1
I0
tp779
a(I1
I1
I1
I1
I1
I1
I0
I1
I1
I1
I1
I1
I1
I0
I1
I1
I1
I0
I0
I0
I1
I1
I0
I0
I1
I1
I1
I1
I1
I1
I0
I0
I1
I0
I0
I0
tp780
a(I0
I0
I1
I1
I1
I0
I1
I1
I1
I0
I0
I0
I1
I0
I1
I1
I0
I1
I0
I0
I0
I1
I1
I1
I1
I1
I0
I1
I1
I1
I0
I1
I0
I1
I0
I0
tp781
a(I1
I0
I0
I1
I0
I0
I1
I1
I1
I0
I1
I1
I1
I1
I1
I0
I0
I0
I0
I0
I0
I1
I0
I0
I0
I1
I1
I1
I1
I1
I0
I0
I0
I1
I0
I1
tp782
a(I1
I1
I1
I1
I0
I0
I0
I1
I1
I1
I1
I0
I1
I1
I1
I0
I0
I0
I1
I1
I1
I1
I0
I1
I1
I1
I1
I0
I1
I1
I1
I0
I0
I0
I1
I0
tp783
a(I1
I0
I1
I0
I0
I0
I1
I1
I1
I1
I1
I0
I1
I1
I1
I1
I0
I0
I0
I0
I0
I1
I0
I0
I1
I1
I0
I1
I0
I0
I0
I1
I0
I1
I0
I0
tp784
a(I1
I1
I1
I1
I0
I0
I0
I1
I0
I0
I0
I1
I1
I1
I0
I0
I0
I0
I1
I0
I0
I1
I0
I0
I1
I0
I1
I1
I1
I0
I1
I0
I0
I0
I0
I0
tp785
a(I1
I0
I1
I1
I1
I1
I0
I0
I1
I1
I1
I1
I1
I1
I1
I0
I0
I0
I1
I0
I0
I1
I0
I0
I1
I1
I1
I0
I0
I0
I0
I0
I0
I0
I0
I0
tp786
a(I1
I1
I1
I1
I1
I0
I1
I1
I1
I0
I1
I1
I1
I0
I0
I0
I0
I0
I1
I0
I1
I1
I0
I0
I1
I1
I1
I1
I1
I1
I1
I0
I0
I1
I0
I1
tp787
a(I1
I1
I1
I1
I1
I0
I1
I0
I1
I1
I1
I1
I1
I1
I1
I1
I0
I0
I0
I0
I0
I1
I0
I0
I1
I1
I1
I1
I0
I1
I1
I0
I0
I1
I0
I0
tp788
a(I1
I1
I0
I1
I0
I1
I1
I1
I1
I1
I1
I1
I1
I1
I1
I1
I0
I1
I0
I0
I0
I0
I0
I0
I1
I1
I1
I0
I1
I0
I0
I0
I0
I1
I0
I0
tp789
a(I1
I1
I1
I0
I0
I1
I1
I1
I1
I0
I1
I1
I1
I1
I1
I1
I1
I0
I1
I1
I0
I1
I0
I0
I1
I0
I1
I1
I0
I1
I1
I1
I1
I1
I0
I1
tp790
a(I1
I1
I1
I1
I1
I0
I1
I1
I0
I0
I0
I0
I1
I0
I1
I1
I0
I0
I0
I0
I1
I1
I0
I0
I1
I1
I0
I0
I1
I0
I0
I0
I0
I0
I1
I0
tp791
a(I1
I1
I0
I0
I0
I0
I1
I1
I1
I0
I0
I1
I1
I0
I1
I0
I0
I0
I0
I0
I0
I1
I0
I0
I0
I1
I1
I1
I1
I0
I1
I0
I0
I1
I0
I0
tp792
a(I1
I1
I1
I1
I0
I0
I1
I1
I1
I0
I0
I1
I1
I1
I1
I1
I0
I0
I1
I1
I0
I1
I0
I0
I1
I1
I1
I1
I1
I1
I1
I0
I0
I1
I1
I0
tp793
a(I1
I1
I1
I1
I1
I0
I1
I1
I0
I0
I0
I0
I1
I0
I1
I1
I0
I0
I0
I0
I1
I1
I0
I0
I1
I1
I0
I0
I1
I0
I0
I0
I0
I0
I1
I0
tp794
a(I1
I1
I1
I1
I0
I0
I1
I1
I1
I0
I0
I0
I1
I1
I1
I1
I0
I0
I1
I1
I1
I1
I0
I0
I1
I1
I1
I1
I0
I0
I1
I0
I0
I1
I1
I1
tp795
a(I0
I0
I1
I0
I0
I0
I0
I1
I1
I0
I1
I1
I1
I0
I1
I0
I0
I0
I0
I0
I0
I1
I0
I0
I0
I1
I1
I1
I1
I0
I1
I0
I0
I1
I1
I0
tp796
a(I0
I1
I0
I0
I0
I0
I0
I1
I0
I1
I1
I1
I1
I0
I1
I0
I1
I0
I1
I0
I0
I1
I0
I0
I0
I0
I1
I1
I1
I0
I1
I1
I0
I1
I0
I0
tp797
a(I1
I1
I1
I1
I0
I0
I1
I1
I1
I1
I1
I1
I1
I0
I1
I1
I0
I0
I1
I0
I0
I1
I0
I0
I1
I0
I1
I1
I0
I0
I1
I0
I0
I1
I1
I0
tp798
a(I1
I1
I1
I1
I0
I0
I0
I1
I1
I0
I1
I1
I1
I1
I0
I0
I0
I0
I0
I1
I1
I1
I0
I0
I1
I1
I1
I1
I0
I0
I1
I0
I0
I1
I0
I0
tp799
a(I1
I1
I1
I1
I0
I0
I1
I1
I1
I0
I0
I1
I1
I1
I1
I0
I0
I0
I1
I1
I0
I0
I0
I1
I1
I1
I1
I0
I0
I0
I1
I1
I1
I0
I1
I0
tp800
a(I1
I0
I1
I1
I0
I0
I1
I1
I1
I1
I1
I1
I1
I1
I1
I1
I0
I0
I1
I0
I0
I1
I0
I0
I1
I1
I1
I0
I0
I0
I1
I0
I1
I1
I0
I0
tp801
a(I1
I1
I1
I1
I0
I0
I1
I1
I1
I0
I1
I0
I1
I1
I1
I1
I0
I0
I1
I1
I0
I1
I0
I0
I0
I1
I1
I1
I1
I1
I0
I1
I0
I0
I1
I1
tp802
a(I1
I1
I1
I0
I0
I0
I1
I0
I1
I1
I0
I1
I1
I1
I0
I0
I0
I1
I0
I0
I0
I1
I1
I0
I1
I1
I1
I1
I1
I0
I1
I0
I0
I1
I1
I0
tp803
a(I1
I1
I1
I0
I0
I0
I1
I0
I1
I0
I1
I1
I0
I1
I1
I1
I0
I0
I0
I1
I1
I0
I0
I0
I0
I1
I1
I1
I0
I1
I1
I1
I0
I1
I0
I0
tp804
a(I1
I1
I1
I1
I0
I0
I1
I1
I1
I1
I1
I0
I1
I1
I1
I1
I0
I0
I1
I0
I0
I1
I0
I0
I1
I1
I0
I0
I1
I0
I1
I0
I1
I0
I0
I0
tp805
a(I1
I1
I1
I0
I1
I0
I1
I1
I1
I1
I1
I1
I1
I1
I1
I1
I1
I0
I0
I0
I0
I1
I0
I1
I1
I0
I0
I1
I1
I1
I1
I1
I0
I1
I1
I0
tp806
a(I1
I0
I1
I1
I0
I0
I0
I1
I1
I1
I1
I1
I1
I1
I0
I1
I1
I1
I1
I0
I0
I1
I0
I1
I0
I1
I1
I0
I1
I1
I0
I0
I0
I0
I1
I0
tp807
a(I1
I1
I1
I0
I0
I0
I1
I1
I1
I1
I0
I0
I1
I1
I0
I0
I0
I0
I1
I0
I0
I1
I0
I1
I1
I1
I1
I1
I1
I0
I1
I0
I0
I1
I0
I0
tp808
a(I1
I1
I1
I1
I1
I0
I1
I1
I1
I1
I1
I1
I1
I1
I1
I1
I0
I0
I0
I0
I0
I1
I1
I0
I0
I0
I1
I0
I1
I0
I0
I0
I0
I0
I0
I1
tp809
a(I0
I1
I0
I1
I0
I0
I1
I1
I1
I0
I0
I1
I1
I1
I1
I0
I0
I0
I1
I0
I0
I1
I1
I0
I1
I1
I1
I1
I1
I1
I1
I1
I1
I1
I0
I0
tp810
a(I0
I1
I0
I1
I0
I0
I1
I1
I1
I0
I0
I1
I1
I1
I1
I0
I0
I0
I1
I0
I0
I1
I1
I0
I1
I1
I1
I1
I1
I1
I1
I1
I1
I1
I0
I0
tp811
a(I0
I1
I0
I0
I0
I0
I0
I1
I0
I1
I1
I1
I1
I0
I1
I0
I1
I0
I1
I0
I0
I1
I0
I0
I0
I0
I1
I1
I1
I0
I1
I1
I0
I1
I0
I0
tp812
a(I1
I1
I1
I0
I1
I0
I1
I1
I1
I1
I1
I1
I1
I1
I1
I1
I1
I0
I0
I0
I0
I1
I0
I1
I1
I0
I0
I1
I1
I1
I1
I1
I0
I1
I1
I0
tp813
a(I1
I1
I1
I1
I0
I0
I1
I1
I1
I1
I1
I1
I0
I1
I1
I1
I1
I0
I1
I0
I1
I1
I0
I1
I1
I1
I1
I0
I1
I1
I0
I0
I0
I0
I1
I0
tp814
a(I1
I1
I1
I1
I0
I0
I1
I1
I1
I1
I1
I1
I1
I0
I1
I1
I0
I0
I1
I0
I0
I1
I0
I0
I1
I0
I1
I1
I0
I0
I1
I0
I0
I1
I1
I0
tp815
a(I1
I0
I1
I1
I0
I0
I1
I1
I1
I1
I1
I1
I1
I1
I1
I1
I0
I0
I1
I0
I0
I1
I0
I0
I1
I1
I1
I0
I0
I0
I1
I0
I1
I1
I0
I0
tp816
a(I1
I1
I1
I1
I1
I0
I1
I1
I0
I0
I0
I1
I1
I1
I1
I1
I0
I0
I1
I0
I0
I1
I1
I0
I0
I1
I1
I1
I0
I0
I0
I1
I0
I0
I0
I0
tp817
a(I1
I1
I1
I1
I1
I0
I1
I1
I1
I1
I1
I1
I1
I1
I1
I1
I0
I0
I0
I0
I0
I1
I1
I0
I0
I0
I1
I0
I1
I0
I0
I0
I0
I0
I0
I1
tp818
a(I1
I1
I1
I0
I0
I0
I1
I1
I1
I1
I0
I1
I0
I0
I0
I1
I1
I0
I1
I0
I1
I1
I0
I0
I1
I1
I1
I0
I1
I1
I1
I0
I0
I0
I1
I1
tp819
a(I1
I1
I0
I1
I0
I0
I1
I0
I1
I1
I1
I1
I0
I1
I1
I0
I0
I0
I1
I0
I0
I0
I0
I0
I1
I1
I0
I1
I0
I1
I1
I0
I0
I0
I1
I1
tp820
a(I0
I0
I1
I0
I0
I0
I0
I1
I1
I0
I1
I1
I1
I0
I1
I0
I0
I0
I0
I0
I0
I1
I0
I0
I0
I1
I1
I1
I1
I0
I1
I0
I0
I1
I1
I0
tp821
a(I1
I1
I1
I1
I0
I0
I1
I1
I1
I1
I1
I0
I1
I1
I1
I1
I0
I0
I1
I0
I0
I1
I0
I0
I1
I1
I0
I0
I1
I0
I1
I0
I1
I0
I0
I0
tp822
a(I1
I0
I1
I0
I0
I0
I1
I0
I1
I0
I1
I0
I1
I1
I0
I0
I1
I1
I1
I0
I1
I1
I0
I1
I0
I0
I1
I0
I0
I0
I1
I0
I0
I1
I0
I0
tp823
a(I1
I1
I0
I1
I0
I0
I0
I0
I1
I1
I1
I1
I1
I1
I1
I0
I0
I0
I0
I0
I0
I1
I0
I0
I0
I1
I1
I1
I0
I0
I1
I0
I0
I1
I0
I0
tp824
a(I0
I0
I0
I0
I0
I1
I0
I0
I1
I1
I1
I1
I1
I1
I1
I0
I0
I0
I1
I0
I0
I1
I0
I0
I1
I1
I1
I0
I1
I1
I0
I1
I0
I0
I0
I1
tp825
a(I1
I1
I1
I0
I1
I1
I1
I1
I1
I0
I1
I1
I1
I1
I0
I0
I0
I0
I0
I0
I0
I1
I1
I0
I1
I1
I0
I1
I1
I0
I1
I0
I0
I0
I0
I0
tp826
a(I1
I1
I1
I0
I0
I0
I1
I1
I0
I1
I1
I0
I1
I1
I0
I1
I0
I0
I1
I1
I0
I1
I1
I0
I1
I1
I1
I1
I1
I1
I1
I0
I0
I1
I0
I0
tp827
a(I1
I1
I1
I1
I0
I0
I1
I1
I1
I1
I1
I1
I1
I0
I1
I0
I0
I0
I0
I1
I0
I1
I0
I0
I1
I1
I1
I1
I0
I0
I1
I0
I0
I0
I0
I0
tp828
a(I1
I1
I1
I1
I1
I0
I1
I1
I1
I0
I0
I1
I1
I1
I0
I0
I0
I0
I1
I0
I1
I1
I0
I0
I1
I1
I1
I1
I0
I0
I1
I0
I0
I1
I0
I0
tp829
a(I1
I1
I1
I1
I0
I0
I1
I1
I1
I1
I1
I0
I1
I1
I0
I0
I0
I0
I0
I0
I0
I1
I0
I0
I1
I1
I1
I1
I1
I1
I0
I0
I0
I1
I0
I0
tp830
a(I1
I1
I0
I1
I1
I0
I1
I1
I1
I1
I1
I1
I1
I0
I1
I1
I1
I0
I1
I1
I0
I1
I0
I0
I1
I1
I1
I0
I0
I0
I0
I0
I0
I1
I1
I0
tp831
a(I0
I1
I1
I1
I0
I1
I1
I0
I1
I0
I0
I1
I1
I0
I1
I0
I0
I0
I1
I0
I0
I1
I0
I1
I1
I1
I1
I0
I1
I1
I1
I1
I1
I0
I0
I0
tp832
a(I1
I0
I1
I0
I0
I0
I1
I0
I1
I0
I1
I0
I1
I1
I0
I0
I1
I1
I1
I0
I1
I1
I0
I1
I0
I0
I1
I0
I0
I0
I1
I0
I0
I1
I0
I0
tp833
a(I0
I0
I1
I1
I0
I0
I1
I1
I0
I1
I0
I0
I1
I1
I1
I1
I1
I0
I1
I0
I0
I1
I0
I1
I1
I1
I1
I1
I1
I1
I0
I0
I0
I1
I0
I0
tp834
a(I1
I1
I1
I1
I0
I0
I1
I1
I1
I1
I1
I1
I1
I1
I1
I1
I1
I0
I1
I0
I0
I1
I0
I0
I1
I1
I1
I1
I1
I0
I0
I0
I0
I1
I0
I0
tp835
a(I1
I1
I1
I1
I0
I1
I1
I0
I0
I1
I1
I1
I1
I1
I1
I1
I0
I0
I1
I0
I0
I1
I0
I1
I1
I1
I1
I1
I1
I1
I1
I0
I0
I1
I0
I1
tp836
a(I1
I1
I1
I1
I1
I0
I0
I1
I1
I0
I1
I1
I1
I1
I1
I0
I0
I1
I0
I0
I0
I1
I1
I0
I0
I0
I0
I1
I1
I0
I0
I0
I1
I1
I1
I0
tp837
a(I1
I1
I1
I1
I0
I1
I1
I1
I1
I0
I1
I1
I0
I1
I1
I1
I0
I0
I0
I0
I0
I1
I1
I1
I0
I0
I1
I1
I1
I1
I0
I0
I0
I0
I0
I0
tp838
a(I1
I1
I1
I1
I0
I0
I1
I1
I1
I0
I0
I0
I0
I1
I1
I1
I0
I0
I1
I0
I0
I1
I0
I1
I1
I1
I1
I1
I1
I1
I0
I0
I0
I1
I0
I0
tp839
a(I1
I1
I1
I1
I0
I0
I1
I1
I1
I1
I1
I1
I1
I1
I1
I1
I0
I0
I1
I1
I1
I1
I0
I0
I0
I0
I1
I0
I1
I0
I1
I1
I0
I1
I0
I1
tp840
a(I0
I1
I1
I0
I0
I1
I1
I1
I1
I0
I1
I1
I0
I1
I1
I1
I0
I0
I1
I0
I0
I1
I0
I1
I1
I1
I1
I1
I1
I1
I1
I0
I0
I1
I0
I0
tp841
a(I1
I0
I1
I1
I1
I0
I1
I0
I1
I1
I1
I1
I1
I1
I1
I0
I0
I1
I1
I0
I1
I1
I1
I0
I1
I1
I0
I0
I1
I0
I1
I0
I0
I1
I0
I0
tp842
a(I1
I1
I1
I1
I1
I0
I0
I1
I1
I1
I0
I1
I1
I1
I1
I1
I0
I0
I0
I0
I0
I1
I1
I0
I1
I1
I0
I1
I1
I1
I1
I0
I1
I1
I0
I0
tp843
a(I1
I0
I1
I1
I0
I0
I1
I0
I1
I1
I1
I1
I1
I1
I0
I1
I0
I0
I1
I0
I1
I1
I0
I0
I0
I1
I0
I0
I0
I0
I0
I0
I0
I1
I0
I0
tp844
a(I1
I1
I1
I1
I0
I0
I1
I1
I0
I0
I0
I0
I0
I0
I1
I1
I1
I0
I1
I0
I0
I1
I0
I1
I0
I1
I1
I0
I1
I1
I0
I0
I0
I0
I1
I0
tp845
a(I0
I1
I1
I1
I0
I1
I1
I1
I1
I0
I1
I1
I1
I1
I1
I0
I0
I0
I1
I1
I1
I1
I0
I0
I1
I1
I1
I0
I0
I0
I1
I0
I0
I0
I0
I0
tp846
a(I1
I1
I1
I1
I0
I0
I1
I0
I1
I0
I0
I0
I0
I1
I1
I0
I0
I1
I1
I0
I1
I1
I0
I1
I0
I0
I1
I1
I0
I1
I0
I0
I0
I0
I0
I1
tp847
a(I1
I1
I1
I1
I0
I0
I0
I1
I0
I1
I1
I1
I1
I1
I0
I1
I0
I1
I0
I0
I1
I1
I0
I0
I1
I1
I1
I1
I0
I0
I0
I0
I0
I0
I0
I0
tp848
a(I1
I1
I1
I1
I0
I1
I0
I1
I1
I0
I1
I1
I1
I1
I1
I1
I0
I0
I1
I0
I0
I1
I0
I0
I1
I1
I0
I1
I1
I1
I0
I0
I0
I1
I0
I0
tp849
a(I1
I1
I1
I1
I1
I0
I1
I1
I1
I0
I1
I0
I1
I1
I1
I0
I0
I0
I1
I0
I0
I1
I0
I0
I0
I0
I1
I1
I0
I1
I1
I0
I0
I0
I1
I0
tp850
a(I1
I1
I1
I1
I0
I1
I1
I1
I1
I0
I0
I1
I0
I1
I0
I1
I1
I0
I1
I0
I0
I1
I0
I0
I1
I1
I1
I0
I1
I0
I0
I0
I0
I0
I0
I0
tp851
a(I1
I0
I1
I0
I0
I0
I1
I1
I1
I1
I1
I1
I1
I1
I1
I1
I0
I0
I1
I0
I1
I1
I0
I0
I0
I1
I1
I0
I1
I1
I0
I0
I0
I1
I0
I0
tp852
a(I1
I1
I0
I0
I0
I0
I0
I1
I1
I1
I1
I0
I1
I0
I0
I0
I0
I0
I1
I0
I1
I0
I0
I0
I0
I1
I0
I0
I1
I1
I1
I1
I0
I0
I0
I0
tp853
a(I0
I1
I1
I1
I0
I0
I1
I1
I1
I1
I1
I1
I1
I1
I1
I0
I1
I0
I1
I1
I1
I0
I1
I0
I1
I0
I1
I0
I1
I1
I0
I1
I0
I1
I0
I1
tp854
a(I1
I1
I1
I1
I0
I0
I1
I1
I1
I1
I1
I1
I1
I1
I1
I1
I1
I0
I0
I0
I1
I1
I0
I0
I0
I0
I1
I1
I1
I0
I1
I1
I0
I1
I0
I0
tp855
a(I1
I0
I1
I0
I0
I0
I1
I0
I1
I1
I1
I1
I1
I1
I1
I0
I0
I0
I1
I0
I0
I1
I0
I1
I1
I1
I0
I1
I0
I1
I1
I0
I0
I1
I0
I0
tp856
a(I1
I1
I0
I0
I0
I1
I1
I0
I1
I0
I1
I1
I1
I1
I1
I0
I0
I0
I0
I0
I0
I1
I0
I1
I0
I1
I0
I1
I1
I1
I0
I0
I0
I1
I0
I0
tp857
a(I1
I1
I1
I1
I0
I0
I0
I1
I0
I1
I0
I1
I0
I0
I1
I1
I1
I0
I0
I0
I0
I0
I0
I1
I1
I1
I1
I1
I1
I1
I1
I0
I0
I0
I0
I0
tp858
a(I1
I1
I1
I1
I0
I1
I1
I1
I1
I0
I1
I1
I1
I0
I1
I1
I0
I0
I1
I0
I1
I1
I0
I0
I1
I1
I1
I1
I1
I0
I0
I0
I0
I1
I0
I0
tp859
a(I1
I1
I1
I1
I1
I1
I1
I1
I1
I0
I1
I1
I0
I1
I1
I1
I0
I0
I0
I1
I0
I1
I0
I0
I0
I1
I1
I0
I0
I1
I1
I1
I1
I0
I1
I0
tp860
a(I1
I1
I0
I1
I1
I0
I0
I1
I0
I0
I1
I0
I1
I1
I1
I0
I0
I0
I0
I0
I0
I1
I0
I0
I1
I1
I1
I1
I0
I1
I0
I0
I0
I1
I0
I0
tp861
a(I1
I1
I0
I1
I0
I0
I1
I1
I1
I1
I0
I0
I1
I1
I1
I1
I1
I1
I1
I0
I0
I0
I0
I0
I0
I1
I1
I0
I0
I0
I1
I0
I1
I0
I0
I0
tp862
a(I1
I1
I1
I1
I0
I0
I1
I1
I0
I1
I1
I1
I1
I1
I1
I1
I0
I0
I0
I0
I0
I1
I0
I0
I1
I1
I1
I1
I1
I0
I1
I0
I0
I1
I0
I0
tp863
a(I1
I1
I1
I0
I0
I1
I1
I1
I1
I0
I0
I0
I1
I1
I1
I1
I0
I0
I1
I0
I0
I1
I0
I0
I1
I1
I1
I1
I1
I0
I1
I0
I0
I1
I0
I0
tp864
a(I1
I1
I1
I1
I0
I0
I1
I1
I0
I0
I0
I0
I0
I0
I1
I1
I1
I0
I1
I0
I0
I1
I0
I1
I0
I1
I1
I0
I1
I1
I0
I0
I0
I0
I1
I0
tp865
a(I1
I1
I1
I1
I0
I0
I0
I1
I0
I1
I1
I1
I1
I1
I0
I1
I0
I1
I0
I0
I1
I1
I0
I0
I1
I1
I1
I1
I0
I0
I0
I0
I0
I0
I0
I0
tp866
a(I1
I1
I1
I1
I0
I1
I0
I1
I1
I0
I1
I1
I1
I1
I1
I1
I0
I0
I1
I0
I0
I1
I0
I0
I1
I1
I0
I1
I1
I1
I0
I0
I0
I1
I0
I0
tp867
a(I1
I1
I1
I1
I0
I0
I1
I1
I1
I0
I1
I1
I1
I1
I1
I1
I0
I0
I1
I0
I0
I1
I1
I0
I1
I1
I0
I1
I1
I1
I0
I1
I0
I0
I0
I1
tp868
a(I0
I1
I1
I1
I1
I0
I1
I1
I1
I1
I1
I0
I0
I1
I1
I1
I0
I0
I1
I1
I1
I1
I0
I1
I0
I0
I1
I1
I1
I1
I0
I0
I0
I0
I0
I0
tp869
a(I1
I1
I1
I0
I0
I0
I1
I1
I0
I1
I1
I0
I1
I1
I0
I0
I0
I0
I1
I1
I1
I0
I1
I0
I0
I1
I1
I1
I1
I1
I0
I0
I0
I1
I1
I1
tp870
a(I0
I1
I1
I1
I0
I0
I1
I1
I1
I1
I1
I1
I1
I1
I1
I0
I1
I0
I1
I1
I1
I0
I1
I0
I1
I0
I1
I0
I1
I1
I0
I1
I0
I1
I0
I1
tp871
a(I1
I1
I1
I0
I0
I1
I1
I1
I1
I0
I1
I1
I1
I1
I1
I0
I1
I0
I1
I0
I0
I1
I0
I0
I1
I1
I1
I1
I1
I0
I1
I0
I0
I0
I0
I0
tp872
a(I1
I1
I1
I1
I0
I0
I0
I0
I1
I1
I0
I0
I1
I1
I1
I0
I0
I0
I1
I0
I0
I1
I0
I0
I1
I0
I1
I1
I1
I1
I0
I0
I0
I1
I1
I0
tp873
a(I1
I1
I1
I1
I0
I0
I1
I1
I1
I0
I0
I0
I0
I1
I1
I0
I0
I0
I1
I1
I0
I0
I0
I0
I0
I0
I1
I1
I0
I0
I0
I1
I0
I1
I1
I0
tp874
a(I1
I1
I1
I1
I0
I0
I1
I1
I1
I1
I1
I1
I1
I1
I1
I1
I1
I0
I0
I0
I1
I1
I0
I0
I0
I0
I1
I1
I1
I0
I1
I1
I0
I1
I0
I0
tp875
a(I1
I1
I1
I1
I1
I0
I1
I1
I1
I0
I1
I0
I1
I1
I1
I0
I0
I0
I1
I0
I0
I1
I0
I0
I0
I0
I1
I1
I0
I1
I1
I0
I0
I0
I1
I0
tp876
a(I1
I1
I1
I1
I0
I0
I1
I1
I1
I1
I1
I1
I1
I1
I1
I0
I1
I0
I1
I0
I1
I1
I0
I1
I1
I1
I0
I1
I1
I1
I0
I0
I0
I1
I0
I1
tp877
a(I1
I1
I1
I1
I0
I1
I1
I1
I1
I0
I0
I1
I0
I1
I0
I1
I1
I0
I1
I0
I0
I1
I0
I0
I1
I1
I1
I0
I1
I0
I0
I0
I0
I0
I0
I0
tp878
a(I1
I0
I1
I0
I0
I0
I1
I1
I0
I0
I1
I1
I1
I1
I1
I0
I0
I1
I0
I0
I0
I0
I0
I0
I1
I1
I0
I1
I0
I1
I1
I0
I0
I1
I0
I0
tp879
a(I1
I1
I1
I0
I0
I0
I0
I1
I0
I1
I1
I1
I1
I1
I1
I0
I0
I0
I1
I1
I1
I1
I0
I0
I1
I1
I1
I1
I0
I0
I1
I0
I0
I1
I0
I0
tp880
a(I1
I1
I0
I0
I0
I1
I1
I1
I1
I0
I0
I0
I1
I1
I1
I0
I0
I0
I1
I1
I0
I1
I0
I1
I1
I1
I1
I1
I0
I0
I1
I0
I0
I1
I1
I0
tp881
a(I1
I0
I1
I0
I0
I0
I0
I1
I1
I0
I0
I0
I1
I0
I1
I0
I0
I0
I0
I0
I0
I1
I0
I0
I0
I1
I1
I0
I1
I0
I0
I0
I0
I1
I1
I0
tp882
a(I1
I1
I0
I0
I0
I0
I0
I1
I1
I1
I1
I0
I1
I0
I0
I0
I0
I0
I1
I0
I1
I0
I0
I0
I0
I1
I0
I0
I1
I1
I1
I1
I0
I0
I0
I0
tp883
a(I1
I1
I1
I1
I0
I0
I1
I1
I1
I0
I0
I0
I0
I1
I1
I1
I0
I0
I1
I0
I0
I1
I0
I1
I1
I1
I1
I1
I1
I1
I0
I0
I0
I1
I0
I0
tp884
a(I1
I0
I1
I1
I1
I0
I0
I1
I1
I1
I1
I1
I1
I1
I1
I1
I0
I0
I1
I0
I0
I1
I0
I1
I1
I1
I1
I1
I0
I1
I1
I0
I0
I1
I1
I1
tp885
a(I1
I1
I1
I1
I0
I0
I1
I1
I0
I0
I1
I1
I1
I1
I1
I0
I0
I0
I1
I0
I0
I0
I0
I0
I1
I1
I1
I0
I0
I1
I0
I1
I1
I0
I0
I1
tp886
a(I1
I1
I1
I1
I1
I0
I1
I0
I1
I0
I1
I1
I1
I1
I1
I1
I0
I0
I1
I0
I0
I1
I1
I0
I0
I1
I1
I0
I1
I0
I0
I0
I1
I1
I0
I0
tp887
a(I1
I1
I1
I1
I0
I0
I1
I1
I0
I1
I1
I0
I1
I0
I1
I0
I0
I1
I1
I1
I0
I1
I0
I0
I1
I0
I1
I1
I0
I0
I1
I0
I1
I1
I0
I0
tp888
a(I1
I1
I1
I1
I1
I0
I1
I1
I1
I1
I1
I0
I1
I1
I1
I1
I0
I0
I0
I0
I0
I1
I0
I0
I0
I1
I1
I1
I1
I0
I1
I0
I0
I1
I1
I0
tp889
a(I1
I0
I0
I1
I0
I0
I1
I1
I1
I1
I1
I1
I0
I1
I1
I1
I0
I0
I0
I0
I0
I1
I0
I0
I0
I1
I0
I1
I1
I1
I0
I0
I1
I1
I0
I0
tp890
a(I1
I1
I1
I1
I1
I0
I1
I1
I1
I1
I1
I1
I0
I1
I1
I1
I0
I0
I1
I0
I0
I0
I0
I0
I1
I1
I0
I0
I1
I0
I1
I0
I0
I0
I1
I0
tp891
a(I1
I1
I1
I1
I0
I0
I0
I1
I1
I0
I1
I1
I0
I1
I1
I0
I0
I0
I1
I0
I1
I1
I1
I0
I0
I0
I1
I0
I1
I0
I1
I1
I0
I0
I0
I0
tp892
a(I1
I0
I1
I1
I0
I1
I1
I0
I1
I1
I1
I0
I0
I0
I0
I0
I0
I0
I1
I0
I0
I1
I0
I0
I0
I1
I1
I0
I1
I0
I0
I0
I0
I0
I0
I0
tp893
a(I1
I1
I1
I1
I1
I1
I1
I1
I1
I1
I1
I1
I1
I1
I1
I1
I0
I0
I1
I1
I0
I1
I0
I1
I1
I1
I0
I1
I1
I1
I0
I1
I0
I0
I0
I1
tp894
a(I1
I1
I1
I1
I0
I0
I1
I1
I1
I1
I1
I1
I1
I0
I1
I1
I1
I0
I1
I0
I0
I1
I0
I0
I0
I1
I0
I1
I1
I0
I1
I1
I0
I1
I0
I0
tp895
a(I1
I1
I0
I1
I0
I0
I1
I1
I1
I1
I1
I1
I1
I0
I0
I1
I0
I0
I1
I0
I0
I1
I0
I1
I1
I0
I1
I1
I0
I1
I1
I0
I0
I1
I0
I0
tp896
a(I1
I1
I1
I1
I0
I0
I1
I1
I1
I1
I1
I1
I0
I1
I1
I0
I0
I0
I1
I1
I1
I1
I0
I0
I0
I0
I1
I1
I0
I0
I1
I0
I0
I0
I0
I0
tp897
a(I1
I1
I1
I1
I1
I1
I1
I1
I1
I1
I1
I1
I1
I0
I1
I1
I0
I0
I0
I0
I0
I1
I0
I0
I0
I1
I1
I0
I1
I1
I1
I0
I0
I0
I0
I0
tp898
a(I1
I1
I1
I1
I0
I1
I0
I1
I1
I1
I1
I1
I1
I0
I1
I1
I0
I0
I0
I0
I0
I1
I0
I0
I0
I0
I1
I1
I0
I0
I0
I0
I0
I1
I0
I0
tp899
a(I1
I1
I0
I0
I0
I1
I1
I1
I1
I0
I0
I0
I1
I0
I1
I1
I0
I0
I1
I0
I1
I1
I0
I0
I1
I1
I1
I1
I0
I1
I1
I1
I0
I1
I0
I1
tp900
a(I0
I1
I1
I0
I0
I1
I1
I1
I1
I1
I1
I1
I0
I1
I1
I0
I0
I0
I1
I0
I0
I1
I1
I1
I1
I1
I1
I0
I1
I1
I1
I1
I0
I0
I1
I0
tp901
a(I1
I1
I1
I1
I0
I0
I1
I1
I1
I1
I1
I1
I1
I1
I1
I0
I0
I1
I1
I0
I0
I1
I0
I0
I1
I0
I0
I1
I1
I0
I1
I0
I1
I1
I0
I0
tp902
a(I0
I1
I1
I1
I1
I1
I1
I1
I1
I0
I0
I1
I1
I1
I1
I1
I0
I0
I1
I0
I1
I1
I0
I0
I0
I1
I0
I0
I0
I0
I1
I0
I0
I1
I0
I0
tp903
a(I1
I1
I1
I0
I0
I0
I1
I1
I0
I1
I1
I1
I1
I1
I1
I1
I0
I0
I1
I0
I0
I1
I0
I0
I0
I0
I1
I1
I0
I1
I1
I0
I0
I1
I0
I1
tp904
a(I1
I1
I0
I1
I0
I0
I1
I1
I0
I1
I1
I1
I1
I0
I1
I1
I0
I0
I0
I0
I1
I1
I0
I0
I1
I1
I1
I1
I1
I0
I1
I0
I0
I1
I1
I0
tp905
a(I1
I1
I1
I1
I1
I1
I1
I1
I1
I1
I1
I1
I0
I0
I1
I1
I0
I0
I1
I0
I0
I1
I0
I0
I0
I1
I0
I1
I0
I0
I1
I1
I0
I1
I0
I0
tp906
a(I1
I1
I1
I1
I0
I1
I1
I0
I1
I0
I0
I1
I1
I1
I1
I0
I0
I0
I1
I0
I0
I1
I0
I0
I0
I1
I1
I1
I1
I1
I0
I0
I0
I1
I0
I0
tp907
a(I1
I1
I1
I1
I0
I0
I1
I0
I0
I0
I1
I1
I1
I1
I1
I1
I0
I0
I0
I0
I1
I1
I1
I1
I0
I1
I0
I0
I1
I1
I0
I0
I0
I1
I0
I0
tp908
a(I1
I0
I1
I0
I0
I0
I1
I1
I1
I1
I1
I1
I1
I1
I1
I1
I0
I0
I1
I0
I0
I1
I0
I1
I1
I1
I1
I1
I0
I1
I0
I0
I0
I0
I0
I0
tp909
a(I1
I1
I1
I1
I0
I0
I1
I1
I0
I0
I1
I1
I1
I1
I1
I1
I0
I0
I1
I0
I0
I1
I0
I1
I1
I0
I1
I1
I0
I1
I1
I1
I0
I1
I1
I0
tp910
a(I1
I1
I1
I1
I0
I1
I1
I1
I1
I1
I1
I1
I1
I0
I1
I0
I0
I0
I1
I0
I0
I1
I0
I0
I0
I0
I1
I0
I0
I1
I0
I0
I0
I1
I1
I0
tp911
a(I1
I1
I1
I1
I0
I0
I1
I1
I0
I0
I1
I1
I1
I1
I1
I1
I0
I0
I1
I0
I0
I1
I0
I1
I1
I0
I1
I1
I0
I1
I1
I1
I0
I1
I1
I0
tp912
a(I1
I1
I1
I0
I0
I0
I1
I1
I1
I1
I1
I0
I0
I0
I0
I1
I0
I0
I0
I0
I0
I1
I0
I0
I0
I0
I1
I0
I1
I1
I0
I0
I0
I1
I1
I0
tp913
a(I1
I1
I0
I0
I0
I1
I1
I1
I1
I1
I0
I1
I1
I0
I1
I0
I1
I0
I1
I0
I0
I1
I0
I0
I1
I1
I1
I1
I0
I1
I1
I1
I0
I1
I0
I0
tp914
a(I1
I0
I0
I1
I0
I0
I0
I0
I1
I1
I0
I1
I1
I1
I1
I1
I1
I1
I1
I0
I0
I0
I0
I0
I0
I1
I1
I0
I1
I0
I0
I0
I0
I1
I1
I0
tp915
a(I1
I1
I1
I1
I0
I0
I1
I1
I1
I1
I1
I1
I1
I1
I1
I1
I0
I0
I1
I1
I0
I1
I1
I0
I1
I1
I0
I1
I0
I0
I1
I0
I1
I1
I1
I0
tp916
a(I1
I1
I1
I0
I1
I1
I1
I1
I1
I1
I1
I1
I0
I1
I1
I0
I0
I0
I1
I1
I1
I1
I0
I0
I0
I1
I1
I0
I1
I0
I1
I1
I0
I0
I1
I0
tp917
a(I1
I1
I1
I1
I0
I1
I1
I1
I1
I0
I0
I0
I0
I1
I1
I0
I0
I0
I1
I0
I1
I1
I1
I1
I1
I1
I1
I1
I1
I1
I0
I0
I0
I1
I1
I0
tp918
a(I1
I1
I0
I0
I1
I0
I0
I1
I0
I0
I0
I0
I0
I1
I1
I1
I0
I0
I0
I0
I0
I0
I0
I0
I0
I0
I1
I1
I1
I1
I1
I1
I0
I1
I0
I1
tp919
a(I0
I1
I1
I1
I1
I1
I1
I0
I1
I0
I1
I1
I1
I1
I1
I0
I0
I0
I1
I0
I0
I1
I0
I1
I1
I1
I0
I0
I0
I1
I0
I0
I0
I1
I0
I0
tp920
a(I1
I1
I1
I1
I0
I1
I1
I0
I1
I0
I0
I1
I1
I1
I0
I0
I0
I0
I0
I0
I0
I1
I1
I0
I0
I1
I1
I0
I1
I1
I1
I0
I0
I0
I0
I0
tp921
a(I1
I0
I0
I1
I0
I0
I0
I1
I1
I0
I0
I1
I1
I0
I1
I0
I0
I0
I1
I0
I0
I1
I0
I0
I0
I1
I1
I1
I0
I1
I0
I0
I0
I1
I0
I0
tp922
a(I1
I1
I1
I1
I0
I1
I1
I1
I1
I1
I1
I1
I1
I0
I1
I0
I0
I0
I1
I0
I0
I1
I0
I0
I0
I0
I1
I0
I0
I1
I0
I0
I0
I1
I1
I0
tp923
a(I1
I0
I1
I0
I0
I0
I1
I1
I1
I1
I1
I1
I1
I1
I1
I1
I0
I0
I1
I0
I0
I1
I0
I1
I1
I1
I1
I1
I0
I1
I0
I0
I0
I0
I0
I0
tp924
a(I1
I1
I0
I1
I0
I0
I0
I1
I1
I1
I1
I0
I1
I1
I1
I1
I0
I0
I0
I0
I0
I1
I1
I0
I0
I0
I1
I1
I1
I1
I1
I1
I1
I1
I0
I0
tp925
a(I1
I1
I1
I1
I1
I0
I1
I1
I1
I0
I0
I0
I1
I1
I1
I1
I1
I1
I0
I0
I0
I1
I0
I0
I1
I1
I1
I0
I1
I0
I1
I1
I0
I1
I1
I1
tp926
a(I1
I1
I1
I1
I0
I0
I1
I1
I1
I0
I0
I1
I1
I1
I1
I0
I1
I0
I0
I0
I0
I0
I0
I1
I1
I0
I1
I0
I1
I1
I0
I0
I0
I1
I1
I0
tp927
a(I1
I1
I1
I1
I0
I0
I1
I1
I1
I1
I1
I1
I0
I1
I0
I0
I0
I0
I1
I0
I0
I1
I0
I0
I1
I1
I0
I1
I0
I0
I1
I0
I0
I1
I1
I0
tp928
a(I1
I0
I1
I1
I0
I0
I1
I0
I1
I0
I0
I1
I1
I1
I1
I0
I0
I0
I1
I0
I0
I1
I0
I0
I0
I1
I1
I1
I0
I0
I1
I0
I0
I0
I1
I0
tp929
a(I1
I0
I1
I1
I0
I0
I1
I0
I1
I1
I1
I1
I0
I1
I1
I0
I0
I0
I1
I0
I0
I1
I0
I1
I0
I1
I1
I1
I0
I1
I1
I0
I0
I0
I1
I0
tp930
a(I1
I1
I1
I0
I1
I0
I1
I1
I1
I1
I1
I1
I1
I1
I1
I1
I1
I0
I1
I0
I0
I1
I0
I0
I0
I0
I1
I0
I0
I0
I0
I0
I0
I1
I0
I1
tp931
a(I1
I1
I1
I1
I0
I0
I1
I1
I1
I0
I1
I1
I0
I1
I1
I0
I1
I0
I1
I1
I0
I1
I0
I0
I0
I0
I0
I0
I1
I1
I1
I0
I0
I1
I0
I0
tp932
a(I1
I1
I1
I1
I0
I1
I1
I1
I1
I0
I1
I1
I1
I1
I1
I1
I0
I1
I0
I0
I0
I1
I0
I0
I0
I1
I1
I1
I1
I1
I0
I0
I0
I1
I0
I0
tp933
a(I1
I1
I0
I0
I0
I0
I1
I1
I1
I0
I0
I0
I1
I1
I1
I0
I0
I0
I0
I0
I0
I1
I0
I0
I1
I1
I1
I0
I0
I1
I0
I0
I0
I0
I0
I0
tp934
a(I1
I1
I1
I1
I0
I1
I1
I1
I1
I1
I1
I1
I1
I1
I0
I0
I0
I0
I0
I0
I1
I1
I0
I1
I0
I0
I0
I1
I0
I0
I1
I0
I1
I0
I0
I0
tp935
a(I1
I1
I1
I0
I0
I0
I1
I1
I1
I0
I0
I0
I1
I1
I1
I0
I1
I0
I1
I0
I0
I0
I0
I0
I1
I1
I1
I0
I1
I1
I1
I0
I0
I1
I1
I0
tp936
a(I1
I1
I0
I1
I0
I0
I1
I0
I1
I1
I1
I1
I0
I1
I1
I1
I1
I1
I1
I0
I0
I1
I0
I1
I1
I1
I1
I0
I0
I1
I0
I0
I0
I1
I0
I0
tp937
a(I1
I1
I0
I1
I0
I0
I1
I1
I1
I1
I1
I0
I1
I1
I0
I1
I0
I1
I1
I0
I1
I1
I0
I0
I0
I1
I1
I1
I1
I1
I1
I0
I0
I1
I1
I0
tp938
a(I1
I1
I1
I1
I1
I0
I1
I1
I0
I0
I1
I1
I1
I1
I1
I1
I0
I0
I0
I0
I0
I1
I0
I0
I0
I1
I1
I1
I1
I0
I1
I0
I0
I1
I0
I0
tp939
a(I1
I1
I1
I1
I0
I0
I0
I1
I1
I0
I1
I1
I1
I0
I0
I1
I0
I0
I1
I0
I0
I0
I1
I0
I1
I1
I1
I0
I1
I1
I1
I0
I0
I0
I0
I0
tp940
a(I0
I0
I1
I1
I0
I0
I1
I1
I1
I0
I1
I1
I1
I0
I1
I0
I1
I0
I0
I0
I0
I1
I0
I1
I1
I1
I1
I1
I0
I1
I0
I0
I0
I1
I0
I0
tp941
a(I1
I1
I1
I1
I0
I0
I0
I1
I1
I0
I1
I1
I1
I0
I0
I1
I0
I0
I1
I0
I0
I0
I1
I0
I1
I1
I1
I0
I1
I1
I1
I0
I0
I0
I0
I0
tp942
a(I1
I0
I1
I0
I0
I0
I1
I1
I1
I0
I0
I1
I1
I0
I1
I0
I0
I0
I1
I0
I0
I0
I0
I1
I1
I1
I1
I1
I0
I0
I0
I0
I0
I1
I0
I0
tp943
a(I1
I1
I1
I1
I0
I1
I1
I1
I1
I0
I1
I1
I1
I1
I1
I1
I0
I1
I0
I0
I0
I1
I0
I0
I0
I1
I1
I1
I1
I1
I0
I0
I0
I1
I0
I0
tp944
a(I1
I1
I0
I1
I0
I0
I1
I1
I1
I1
I1
I0
I1
I1
I0
I1
I0
I1
I1
I0
I1
I1
I0
I0
I0
I1
I1
I1
I1
I1
I1
I0
I0
I1
I1
I0
tp945
a(I1
I1
I1
I1
I0
I0
I1
I0
I1
I1
I1
I1
I1
I1
I1
I1
I1
I1
I1
I1
I1
I1
I0
I1
I1
I1
I1
I1
I0
I1
I1
I1
I0
I1
I0
I1
tp946
a(I1
I0
I1
I1
I0
I0
I1
I1
I0
I1
I0
I1
I1
I1
I1
I1
I0
I0
I1
I1
I0
I1
I0
I1
I1
I1
I1
I1
I1
I1
I1
I1
I1
I1
I0
I0
tp947
a(I1
I1
I1
I0
I0
I1
I1
I1
I1
I1
I0
I0
I1
I1
I1
I1
I1
I0
I1
I0
I0
I1
I0
I1
I1
I1
I1
I0
I1
I1
I1
I0
I0
I0
I0
I1
tp948
a(I1
I1
I1
I1
I0
I1
I1
I1
I1
I0
I0
I1
I1
I0
I1
I0
I0
I0
I1
I0
I0
I1
I1
I1
I0
I0
I1
I1
I0
I0
I0
I0
I0
I1
I0
I0
tp949
a(I1
I1
I1
I1
I0
I0
I1
I1
I1
I1
I1
I1
I1
I0
I1
I1
I0
I0
I1
I1
I0
I1
I1
I0
I0
I1
I1
I1
I1
I0
I1
I1
I1
I1
I0
I0
tp950
a(I0
I1
I1
I1
I0
I1
I0
I1
I1
I1
I1
I1
I1
I1
I1
I0
I0
I1
I1
I0
I1
I1
I0
I0
I1
I0
I0
I1
I1
I1
I0
I0
I0
I1
I0
I0
tp951
a(I0
I1
I1
I0
I0
I1
I1
I1
I1
I0
I0
I0
I1
I1
I1
I0
I1
I1
I1
I0
I1
I1
I0
I1
I1
I1
I1
I1
I0
I1
I1
I1
I1
I1
I0
I0
tp952
a(I1
I1
I0
I1
I0
I0
I1
I1
I1
I0
I1
I1
I1
I1
I0
I1
I0
I0
I0
I0
I1
I0
I0
I1
I1
I1
I1
I0
I1
I1
I1
I1
I0
I0
I1
I1
tp953
a(I1
I1
I1
I0
I0
I0
I1
I1
I1
I0
I1
I1
I1
I0
I1
I0
I0
I0
I1
I1
I0
I1
I1
I0
I0
I1
I1
I1
I0
I0
I1
I0
I0
I1
I0
I1
tp954
a(I1
I1
I0
I1
I0
I0
I1
I1
I1
I0
I1
I1
I1
I0
I0
I0
I0
I0
I0
I0
I1
I1
I0
I1
I0
I1
I1
I1
I0
I1
I1
I0
I0
I0
I0
I0
tp955
a(I1
I1
I1
I0
I1
I1
I1
I1
I1
I1
I1
I0
I1
I1
I1
I1
I0
I0
I1
I0
I0
I1
I1
I0
I1
I1
I1
I0
I1
I0
I1
I0
I0
I1
I0
I0
tp956
a(I1
I0
I1
I1
I0
I1
I0
I0
I1
I0
I0
I1
I1
I1
I1
I0
I0
I0
I0
I0
I0
I0
I0
I0
I1
I1
I1
I0
I1
I0
I1
I0
I0
I0
I0
I0
tp957
a(I0
I0
I0
I1
I1
I0
I1
I1
I1
I0
I1
I1
I1
I0
I1
I1
I0
I0
I0
I0
I0
I0
I0
I0
I0
I0
I0
I1
I1
I0
I0
I0
I0
I1
I0
I1
tp958
a(I0
I1
I1
I0
I0
I0
I1
I1
I1
I1
I0
I1
I1
I1
I1
I1
I0
I0
I1
I0
I0
I1
I0
I0
I1
I1
I1
I0
I1
I0
I0
I0
I0
I1
I1
I0
tp959
a(I1
I1
I1
I1
I0
I0
I0
I1
I0
I1
I1
I0
I1
I1
I1
I1
I0
I0
I0
I0
I1
I1
I0
I1
I0
I0
I1
I1
I0
I1
I1
I0
I0
I0
I0
I0
tp960
a(I1
I1
I1
I1
I0
I0
I1
I1
I1
I1
I1
I1
I1
I0
I1
I1
I0
I0
I1
I1
I0
I1
I1
I0
I0
I1
I1
I1
I1
I0
I1
I1
I1
I1
I0
I0
tp961
a(I1
I1
I0
I1
I0
I0
I1
I1
I1
I0
I1
I1
I1
I1
I0
I1
I0
I0
I0
I0
I1
I0
I0
I1
I1
I1
I1
I0
I1
I1
I1
I1
I0
I0
I1
I1
tp962
a(I1
I1
I1
I0
I0
I0
I1
I1
I0
I1
I1
I1
I1
I1
I0
I1
I0
I0
I1
I0
I0
I1
I0
I1
I1
I0
I0
I1
I1
I1
I0
I1
I0
I1
I1
I0
tp963
a(I1
I1
I1
I1
I1
I1
I1
I0
I1
I1
I1
I0
I1
I1
I1
I1
I0
I0
I1
I0
I0
I1
I0
I0
I0
I1
I1
I0
I1
I0
I0
I0
I0
I1
I0
I0
tp964
a(I1
I0
I0
I0
I0
I0
I1
I1
I1
I0
I1
I1
I1
I0
I1
I0
I0
I0
I1
I0
I0
I1
I0
I0
I0
I1
I1
I0
I0
I1
I1
I1
I0
I0
I1
I1
tp965
a(I1
I1
I0
I1
I0
I0
I0
I1
I1
I0
I1
I1
I0
I1
I1
I0
I0
I0
I1
I1
I0
I1
I0
I0
I0
I1
I0
I1
I0
I0
I0
I0
I0
I1
I0
I0
tp966
a(I1
I1
I1
I1
I0
I0
I1
I1
I1
I1
I1
I1
I1
I1
I1
I1
I0
I1
I1
I0
I1
I0
I1
I1
I0
I0
I0
I0
I1
I1
I1
I0
I0
I1
I1
I0
tp967
a(I1
I1
I0
I1
I0
I0
I1
I1
I1
I1
I1
I1
I0
I0
I1
I1
I0
I1
I1
I0
I1
I1
I0
I1
I1
I1
I1
I1
I0
I0
I0
I0
I1
I1
I0
I0
tp968
a(I1
I1
I1
I1
I0
I0
I1
I1
I1
I1
I1
I1
I1
I0
I1
I1
I0
I0
I1
I0
I0
I1
I0
I1
I1
I1
I1
I1
I0
I1
I0
I0
I1
I0
I0
I1
tp969
a(I1
I1
I0
I1
I1
I1
I0
I1
I1
I0
I1
I1
I1
I1
I1
I1
I1
I0
I1
I1
I0
I1
I0
I0
I0
I0
I1
I0
I0
I1
I1
I0
I0
I0
I0
I1
tp970
a(I1
I1
I1
I1
I0
I0
I1
I1
I1
I1
I1
I1
I1
I1
I1
I0
I0
I0
I1
I0
I0
I1
I0
I1
I1
I1
I1
I1
I1
I1
I0
I0
I0
I1
I1
I0
tp971
a(I1
I1
I1
I0
I0
I0
I1
I1
I1
I1
I1
I1
I1
I1
I1
I1
I0
I0
I1
I0
I0
I1
I0
I0
I0
I0
I0
I1
I1
I0
I1
I1
I0
I1
I0
I0
tp972
a(I1
I1
I1
I1
I0
I0
I1
I1
I1
I1
I0
I1
I1
I0
I1
I1
I1
I0
I1
I1
I0
I1
I0
I0
I0
I1
I1
I0
I0
I1
I1
I0
I1
I1
I0
I0
tp973
a(I1
I0
I0
I1
I0
I0
I0
I1
I0
I0
I1
I0
I0
I1
I1
I0
I0
I0
I0
I0
I0
I0
I1
I0
I1
I1
I0
I1
I1
I1
I0
I0
I0
I1
I0
I0
tp974
a(I1
I1
I1
I1
I0
I0
I1
I0
I1
I1
I1
I1
I1
I1
I1
I1
I1
I0
I0
I0
I0
I1
I0
I1
I1
I1
I1
I0
I1
I1
I0
I1
I1
I0
I1
I0
tp975
a(I1
I0
I1
I0
I0
I0
I1
I1
I1
I1
I0
I1
I1
I1
I0
I1
I0
I1
I0
I0
I0
I1
I0
I0
I1
I0
I1
I1
I1
I1
I1
I0
I0
I0
I1
I0
tp976
a(I0
I1
I1
I1
I0
I1
I1
I1
I1
I0
I0
I0
I1
I1
I1
I1
I0
I0
I1
I0
I0
I1
I0
I1
I0
I1
I1
I0
I0
I1
I1
I0
I0
I1
I0
I0
tp977
a(I1
I1
I1
I0
I0
I0
I1
I1
I1
I0
I0
I0
I1
I1
I1
I1
I1
I0
I0
I0
I1
I0
I0
I0
I1
I1
I1
I1
I0
I1
I1
I1
I0
I1
I0
I0
tp978
a(I1
I1
I1
I1
I0
I0
I1
I0
I0
I1
I1
I1
I1
I1
I0
I0
I0
I0
I1
I0
I0
I1
I0
I1
I1
I0
I0
I0
I0
I1
I0
I0
I0
I1
I1
I0
tp979
a(I1
I1
I1
I1
I0
I0
I1
I1
I0
I1
I1
I1
I1
I1
I1
I1
I0
I0
I1
I1
I0
I0
I0
I1
I0
I0
I1
I0
I0
I1
I0
I1
I0
I1
I0
I0
tp980
a(I1
I1
I1
I1
I0
I0
I1
I1
I1
I1
I1
I1
I0
I1
I1
I0
I0
I0
I1
I0
I0
I1
I1
I0
I1
I0
I1
I0
I0
I0
I1
I0
I0
I1
I1
I0
tp981
a(I1
I1
I1
I0
I0
I0
I1
I1
I1
I1
I0
I1
I1
I0
I0
I0
I0
I0
I1
I0
I0
I1
I0
I1
I1
I1
I0
I0
I0
I1
I1
I0
I0
I1
I0
I0
tp982
a(I0
I1
I1
I1
I1
I0
I1
I1
I1
I1
I1
I0
I1
I1
I1
I0
I0
I0
I0
I0
I0
I0
I0
I0
I1
I1
I1
I1
I1
I1
I1
I1
I1
I1
I0
I1
tp983
a(I1
I1
I1
I0
I0
I1
I1
I1
I1
I1
I1
I1
I1
I1
I1
I1
I0
I0
I1
I0
I0
I1
I1
I0
I1
I1
I1
I1
I1
I1
I0
I0
I0
I1
I1
I0
tp984
a(I1
I1
I1
I0
I0
I1
I1
I1
I1
I0
I0
I1
I1
I0
I1
I1
I1
I0
I0
I0
I0
I0
I0
I0
I0
I1
I0
I1
I0
I1
I1
I1
I1
I0
I1
I0
tp985
a(I1
I1
I0
I1
I0
I0
I1
I0
I1
I1
I1
I1
I1
I0
I1
I0
I0
I0
I0
I1
I1
I0
I0
I1
I1
I0
I1
I0
I0
I1
I0
I0
I1
I1
I0
I0
tp986
a(I1
I1
I1
I0
I0
I0
I1
I1
I0
I0
I1
I0
I1
I1
I1
I1
I1
I0
I1
I0
I0
I1
I0
I1
I1
I1
I1
I0
I1
I1
I1
I0
I0
I1
I0
I1
tp987
a(I1
I1
I1
I1
I1
I0
I1
I1
I1
I0
I1
I1
I1
I0
I0
I1
I0
I0
I1
I0
I1
I0
I0
I1
I1
I1
I0
I0
I0
I1
I0
I0
I0
I1
I0
I0
tp988
a(I1
I1
I1
I1
I0
I0
I1
I0
I1
I0
I1
I1
I1
I1
I1
I1
I1
I0
I1
I0
I0
I1
I0
I1
I0
I0
I0
I1
I0
I1
I1
I0
I0
I1
I0
I0
tp989
a(I1
I1
I1
I1
I0
I0
I1
I0
I1
I1
I1
I1
I1
I0
I1
I1
I0
I0
I1
I1
I1
I1
I0
I0
I0
I0
I1
I1
I0
I1
I1
I0
I0
I1
I1
I0
tp990
a(I1
I1
I1
I0
I0
I0
I1
I1
I0
I0
I1
I0
I1
I1
I1
I1
I1
I0
I1
I0
I0
I1
I0
I1
I1
I1
I1
I0
I1
I1
I1
I0
I0
I1
I0
I1
tp991
a(I0
I0
I1
I1
I0
I0
I1
I1
I0
I0
I1
I1
I1
I1
I1
I0
I0
I0
I1
I0
I1
I1
I1
I0
I0
I1
I1
I0
I1
I1
I1
I0
I0
I1
I0
I0
tp992
a(I1
I1
I1
I1
I1
I0
I1
I1
I1
I0
I1
I1
I1
I0
I0
I1
I0
I0
I1
I0
I1
I0
I0
I1
I1
I1
I0
I0
I0
I1
I0
I0
I0
I1
I0
I0
tp993
a(I0
I1
I1
I1
I0
I0
I0
I1
I1
I0
I1
I1
I1
I1
I1
I1
I0
I0
I1
I1
I1
I1
I0
I0
I1
I0
I1
I1
I0
I0
I1
I0
I0
I1
I0
I0
tp994
a(I1
I1
I1
I1
I1
I1
I1
I1
I1
I1
I1
I1
I1
I1
I1
I1
I0
I0
I1
I0
I0
I1
I0
I0
I0
I1
I1
I0
I1
I0
I0
I0
I0
I1
I0
I0
tp995
a(I0
I1
I1
I1
I1
I1
I1
I1
I1
I1
I1
I1
I1
I1
I1
I0
I0
I0
I0
I0
I0
I1
I1
I1
I0
I1
I1
I0
I0
I1
I0
I0
I0
I1
I0
I0
tp996
a(I1
I0
I1
I1
I0
I1
I1
I1
I1
I0
I1
I1
I1
I1
I1
I1
I0
I0
I0
I0
I0
I1
I0
I0
I1
I1
I1
I0
I0
I1
I0
I1
I0
I0
I0
I0
tp997
a(I0
I0
I0
I1
I0
I0
I1
I1
I1
I1
I1
I1
I1
I1
I0
I1
I0
I0
I1
I0
I0
I0
I1
I0
I1
I1
I1
I0
I1
I0
I1
I0
I0
I0
I1
I0
tp998
a(I1
I1
I1
I1
I0
I0
I1
I1
I1
I0
I1
I1
I1
I1
I1
I0
I0
I0
I0
I0
I0
I0
I0
I1
I1
I1
I1
I1
I1
I1
I1
I0
I1
I0
I1
I0
tp999
a(I1
I1
I1
I1
I0
I1
I0
I0
I1
I0
I0
I0
I1
I1
I1
I1
I1
I0
I1
I1
I0
I1
I0
I0
I0
I1
I1
I1
I1
I1
I1
I1
I0
I1
I1
I1
tp1000
a(I1
I1
I1
I0
I0
I0
I1
I1
I0
I0
I1
I1
I1
I1
I1
I1
I0
I0
I0
I0
I1
I1
I0
I0
I1
I1
I1
I0
I1
I1
I1
I1
I0
I0
I0
I0
tp1001
a(I1
I1
I1
I0
I0
I1
I1
I1
I1
I0
I1
I1
I1
I0
I1
I0
I0
I0
I1
I1
I0
I1
I1
I1
I0
I1
I1
I0
I1
I1
I1
I0
I0
I0
I0
I0
tp1002
a(I1
I1
I1
I1
I0
I0
I1
I1
I1
I0
I0
I0
I1
I1
I1
I0
I0
I0
I1
I0
I0
I1
I0
I0
I0
I1
I0
I0
I0
I0
I1
I0
I0
I1
I0
I0
tp1003
a(I1
I1
I1
I1
I0
I0
I1
I0
I1
I0
I0
I1
I0
I0
I0
I0
I0
I1
I1
I1
I1
I1
I0
I0
I1
I1
I1
I1
I1
I1
I1
I0
I0
I1
I0
I0
tp1004
a(I1
I1
I1
I0
I0
I0
I1
I1
I1
I0
I1
I1
I1
I1
I1
I0
I0
I0
I1
I0
I0
I1
I0
I0
I1
I1
I1
I1
I1
I1
I1
I0
I0
I1
I0
I0
tp1005
a(I1
I1
I1
I1
I0
I0
I1
I1
I1
I1
I0
I0
I1
I0
I0
I1
I0
I0
I1
I0
I0
I1
I1
I0
I1
I1
I0
I1
I0
I1
I1
I0
I0
I1
I0
I0
tp1006
a(I1
I1
I1
I1
I0
I0
I0
I1
I1
I0
I1
I1
I0
I1
I1
I1
I1
I0
I1
I0
I0
I1
I0
I0
I1
I1
I1
I0
I0
I0
I0
I0
I0
I1
I0
I0
tp1007
a(I1
I1
I1
I1
I1
I0
I1
I0
I1
I0
I1
I1
I0
I1
I1
I1
I0
I0
I0
I0
I0
I1
I1
I0
I1
I1
I1
I1
I1
I0
I1
I0
I0
I0
I0
I0
tp1008
a(I1
I1
I1
I1
I0
I0
I1
I1
I0
I1
I0
I1
I0
I0
I1
I0
I0
I0
I1
I1
I1
I0
I0
I1
I1
I1
I1
I0
I1
I1
I1
I1
I0
I1
I1
I0
tp1009
a(I0
I1
I1
I0
I0
I0
I0
I1
I1
I0
I0
I1
I1
I0
I1
I1
I0
I0
I1
I1
I1
I1
I0
I0
I0
I1
I1
I1
I0
I0
I0
I0
I0
I0
I0
I0
tp1010
a(I1
I0
I1
I1
I0
I0
I1
I1
I1
I1
I0
I0
I1
I1
I1
I1
I1
I0
I0
I0
I0
I1
I1
I1
I1
I1
I1
I1
I0
I1
I1
I1
I1
I1
I0
I0
tp1011
a(I1
I1
I1
I0
I0
I0
I1
I1
I1
I0
I1
I0
I0
I1
I1
I1
I0
I0
I0
I0
I0
I1
I0
I0
I0
I1
I1
I0
I1
I1
I0
I0
I0
I1
I0
I0
tp1012
a(I1
I0
I0
I1
I1
I0
I1
I0
I1
I0
I0
I1
I1
I0
I1
I1
I0
I0
I1
I0
I0
I1
I1
I0
I1
I1
I0
I1
I0
I1
I1
I0
I0
I1
I0
I0
tp1013
a(I1
I1
I1
I1
I1
I1
I0
I1
I0
I0
I1
I1
I1
I1
I1
I1
I1
I1
I1
I1
I0
I1
I0
I0
I0
I0
I1
I0
I0
I1
I1
I0
I1
I1
I1
I0
tp1014
a(I1
I1
I1
I1
I0
I0
I1
I1
I1
I1
I1
I1
I0
I1
I1
I1
I1
I0
I1
I0
I0
I1
I1
I0
I1
I1
I1
I1
I1
I1
I1
I1
I0
I1
I0
I0
tp1015
a(I0
I1
I1
I1
I0
I0
I1
I1
I1
I0
I1
I1
I1
I1
I1
I1
I1
I0
I1
I0
I0
I1
I0
I0
I1
I1
I1
I1
I0
I0
I1
I0
I0
I1
I0
I0
tp1016
a(I1
I1
I1
I1
I0
I1
I1
I1
I1
I0
I0
I0
I1
I1
I1
I0
I0
I0
I0
I0
I0
I0
I1
I0
I0
I0
I0
I0
I1
I1
I1
I0
I0
I1
I0
I0
tp1017
a(I1
I0
I1
I1
I0
I0
I1
I1
I1
I1
I1
I1
I1
I1
I1
I1
I0
I0
I1
I1
I0
I1
I1
I0
I1
I1
I1
I1
I1
I1
I0
I0
I0
I0
I0
I0
tp1018
a(I0
I1
I1
I1
I0
I0
I1
I1
I1
I0
I1
I1
I1
I1
I1
I1
I0
I0
I1
I0
I0
I1
I0
I1
I1
I1
I1
I0
I0
I1
I0
I0
I1
I1
I0
I0
tp1019
a(I1
I1
I1
I1
I0
I0
I0
I1
I1
I0
I0
I1
I1
I1
I1
I1
I0
I0
I1
I0
I0
I1
I1
I1
I0
I1
I1
I1
I1
I1
I1
I0
I0
I0
I1
I0
tp1020
a(I1
I1
I1
I1
I1
I0
I1
I1
I0
I0
I1
I1
I1
I1
I1
I0
I0
I0
I0
I0
I0
I1
I0
I1
I1
I0
I1
I0
I0
I1
I1
I0
I0
I0
I0
I1
tp1021
a(I1
I1
I1
I1
I0
I0
I1
I0
I1
I0
I1
I1
I1
I1
I1
I0
I0
I0
I1
I0
I0
I1
I0
I1
I0
I1
I1
I1
I0
I1
I1
I0
I0
I1
I0
I0
tp1022
a(I1
I1
I1
I1
I0
I1
I1
I0
I1
I1
I1
I1
I1
I0
I1
I0
I0
I0
I0
I0
I0
I0
I1
I0
I1
I1
I0
I1
I1
I0
I1
I0
I0
I1
I0
I1
tp1023
a(I1
I0
I1
I1
I1
I1
I1
I1
I1
I0
I0
I0
I1
I1
I1
I0
I0
I0
I1
I0
I0
I1
I0
I1
I0
I0
I0
I0
I1
I1
I1
I0
I0
I1
I0
I0
tp1024
a(I1
I1
I1
I1
I0
I0
I1
I0
I1
I1
I1
I1
I1
I1
I0
I1
I1
I1
I1
I0
I1
I1
I1
I0
I0
I0
I0
I1
I1
I0
I0
I1
I0
I1
I0
I0
tp1025
a(I1
I1
I1
I1
I0
I0
I1
I1
I1
I1
I1
I1
I0
I1
I1
I1
I1
I0
I1
I0
I0
I1
I1
I0
I1
I1
I1
I1
I1
I1
I1
I1
I0
I1
I0
I0
tp1026
a(I0
I1
I1
I1
I0
I0
I1
I1
I1
I1
I1
I0
I1
I1
I1
I0
I0
I0
I1
I0
I0
I1
I0
I1
I1
I1
I0
I0
I1
I1
I1
I1
I1
I0
I1
I0
tp1027
a(I1
I1
I1
I1
I0
I0
I0
I0
I1
I1
I1
I0
I1
I1
I1
I1
I0
I0
I1
I1
I0
I0
I0
I1
I1
I0
I1
I1
I0
I1
I1
I0
I0
I0
I0
I0
tp1028
a(I1
I1
I1
I0
I0
I1
I1
I1
I1
I1
I1
I1
I0
I1
I1
I0
I1
I0
I1
I0
I0
I1
I0
I0
I1
I1
I1
I1
I0
I1
I1
I0
I0
I1
I0
I0
tp1029
a(I1
I1
I1
I0
I0
I0
I1
I1
I0
I0
I1
I1
I1
I1
I1
I1
I0
I0
I1
I0
I1
I1
I0
I1
I1
I1
I1
I1
I1
I1
I1
I1
I0
I1
I1
I0
tp1030
a(I0
I1
I1
I1
I0
I1
I1
I1
I1
I1
I1
I1
I1
I1
I1
I0
I0
I0
I1
I0
I1
I1
I0
I0
I0
I1
I1
I0
I1
I0
I1
I1
I1
I0
I0
I0
tp1031
a(I0
I1
I0
I1
I0
I0
I1
I0
I1
I0
I0
I1
I1
I1
I1
I0
I0
I0
I1
I1
I0
I0
I0
I0
I0
I1
I1
I0
I1
I1
I0
I0
I0
I0
I0
I0
tp1032
a(I1
I1
I1
I1
I0
I0
I1
I1
I1
I0
I0
I0
I1
I1
I1
I1
I1
I1
I0
I0
I0
I1
I0
I1
I1
I1
I1
I1
I0
I0
I0
I0
I0
I0
I0
I1
tp1033
a(I1
I1
I1
I1
I0
I1
I1
I1
I1
I0
I1
I1
I1
I1
I1
I0
I1
I0
I0
I0
I0
I1
I0
I0
I0
I1
I1
I1
I0
I0
I0
I0
I0
I0
I0
I0
tp1034
a(I1
I1
I1
I0
I0
I0
I1
I1
I0
I1
I1
I1
I1
I0
I1
I0
I0
I0
I1
I0
I0
I1
I0
I1
I0
I1
I1
I1
I1
I1
I1
I0
I0
I1
I0
I1
tp1035
a(I1
I1
I1
I1
I0
I1
I1
I1
I1
I0
I1
I1
I1
I1
I1
I0
I1
I0
I0
I0
I0
I1
I0
I0
I0
I1
I1
I1
I0
I0
I0
I0
I0
I0
I0
I0
tp1036
a(I0
I1
I1
I1
I0
I0
I1
I1
I1
I0
I1
I0
I1
I0
I0
I0
I1
I0
I1
I0
I0
I1
I0
I0
I0
I1
I1
I0
I0
I0
I1
I0
I0
I1
I0
I0
tp1037
a(I1
I1
I1
I1
I0
I0
I1
I1
I0
I1
I1
I1
I1
I1
I1
I0
I0
I0
I1
I1
I0
I0
I1
I0
I0
I1
I1
I0
I1
I1
I0
I0
I0
I1
I0
I0
tp1038
a(I1
I0
I1
I1
I1
I0
I1
I1
I0
I0
I1
I1
I0
I1
I1
I0
I1
I1
I1
I0
I0
I1
I1
I0
I0
I0
I0
I0
I1
I0
I0
I1
I0
I1
I1
I0
tp1039
a(I1
I1
I0
I1
I0
I0
I1
I1
I0
I0
I1
I1
I1
I1
I1
I1
I0
I0
I1
I0
I0
I1
I0
I0
I0
I0
I0
I1
I0
I0
I0
I0
I0
I1
I0
I0
tp1040
a(I1
I1
I1
I1
I0
I0
I1
I1
I1
I1
I1
I0
I0
I0
I1
I1
I0
I0
I0
I0
I0
I1
I0
I0
I1
I0
I0
I0
I0
I0
I0
I0
I0
I1
I0
I0
tp1041
a(I1
I1
I1
I1
I0
I0
I1
I1
I1
I1
I1
I1
I1
I1
I0
I1
I1
I0
I1
I1
I0
I0
I0
I1
I1
I1
I1
I0
I0
I1
I1
I1
I1
I0
I0
I1
tp1042
a(I1
I1
I0
I1
I0
I0
I1
I1
I1
I1
I0
I1
I1
I1
I1
I0
I1
I0
I1
I0
I0
I1
I0
I1
I1
I1
I1
I1
I1
I0
I1
I0
I1
I1
I1
I0
tp1043
a(I1
I0
I0
I1
I1
I0
I1
I1
I1
I1
I1
I0
I0
I1
I1
I0
I0
I0
I1
I0
I0
I1
I0
I0
I0
I1
I0
I1
I1
I1
I1
I0
I0
I0
I0
I1
tp1044
a(I1
I1
I0
I1
I0
I0
I0
I1
I1
I1
I1
I1
I0
I1
I1
I1
I1
I0
I1
I0
I0
I1
I0
I0
I1
I1
I1
I1
I1
I0
I0
I0
I1
I1
I0
I0
tp1045
a(I1
I0
I1
I1
I1
I0
I1
I1
I1
I0
I1
I1
I1
I1
I1
I1
I0
I1
I1
I0
I1
I1
I0
I1
I1
I1
I1
I1
I1
I0
I0
I0
I0
I1
I1
I1
tp1046
a(I1
I0
I1
I1
I1
I0
I1
I1
I0
I1
I1
I0
I1
I1
I1
I0
I0
I0
I1
I0
I0
I0
I0
I0
I1
I1
I1
I1
I1
I1
I0
I0
I0
I0
I0
I0
tp1047
a(I1
I1
I1
I1
I0
I0
I1
I0
I1
I1
I1
I1
I1
I1
I1
I1
I0
I0
I0
I0
I0
I1
I0
I0
I1
I1
I1
I0
I1
I0
I0
I0
I0
I0
I0
I0
tp1048
a(I1
I0
I1
I1
I0
I0
I1
I1
I1
I0
I0
I0
I0
I1
I1
I0
I1
I1
I1
I0
I0
I1
I1
I0
I1
I1
I1
I0
I1
I0
I1
I0
I0
I1
I0
I0
tp1049
a(I0
I0
I1
I1
I0
I0
I0
I1
I0
I0
I0
I1
I1
I1
I1
I0
I1
I1
I1
I1
I0
I1
I0
I0
I0
I0
I1
I0
I1
I0
I0
I0
I0
I0
I1
I0
tp1050
a(I1
I0
I1
I0
I0
I0
I0
I1
I0
I0
I1
I1
I1
I1
I0
I0
I0
I0
I1
I1
I1
I1
I1
I0
I0
I1
I1
I1
I1
I1
I0
I0
I1
I1
I0
I1
tp1051
a(I0
I1
I1
I0
I0
I1
I1
I1
I1
I1
I1
I1
I1
I1
I1
I0
I1
I0
I1
I1
I0
I0
I0
I0
I0
I1
I1
I1
I0
I0
I1
I0
I0
I0
I1
I0
tp1052
a(I0
I1
I1
I0
I0
I0
I1
I1
I1
I1
I0
I0
I0
I1
I1
I1
I0
I0
I1
I0
I0
I1
I0
I0
I0
I1
I0
I0
I1
I1
I0
I0
I0
I1
I1
I0
tp1053
a(I1
I1
I1
I0
I0
I0
I0
I1
I1
I1
I1
I1
I1
I1
I0
I0
I1
I0
I1
I0
I0
I1
I0
I0
I1
I1
I0
I0
I0
I0
I0
I0
I0
I0
I1
I0
tp1054
a(I1
I1
I1
I1
I0
I0
I0
I0
I1
I0
I0
I1
I1
I1
I1
I0
I0
I0
I1
I0
I0
I0
I0
I1
I1
I1
I1
I0
I0
I1
I1
I0
I0
I0
I1
I0
tp1055
a(I1
I1
I0
I1
I0
I0
I1
I1
I1
I0
I1
I1
I0
I1
I1
I1
I0
I0
I1
I1
I1
I1
I0
I0
I1
I1
I1
I0
I1
I0
I1
I1
I1
I1
I0
I0
tp1056
a(I1
I1
I1
I0
I0
I0
I1
I1
I1
I1
I1
I1
I1
I1
I0
I0
I0
I0
I1
I0
I0
I0
I1
I1
I0
I1
I1
I0
I1
I1
I1
I0
I0
I1
I1
I0
tp1057
a(I1
I1
I1
I1
I0
I1
I1
I0
I1
I1
I1
I0
I1
I1
I1
I1
I0
I0
I0
I1
I1
I1
I0
I0
I0
I0
I0
I0
I0
I1
I1
I0
I0
I1
I0
I1
tp1058
a(I1
I1
I1
I1
I0
I0
I0
I1
I1
I0
I1
I1
I1
I0
I1
I1
I0
I0
I0
I0
I0
I1
I0
I0
I0
I0
I0
I0
I1
I1
I1
I1
I0
I0
I0
I0
tp1059
a(I1
I1
I0
I1
I1
I1
I1
I1
I1
I0
I1
I0
I1
I0
I0
I1
I0
I0
I1
I0
I0
I1
I0
I0
I0
I1
I0
I1
I0
I1
I0
I0
I0
I1
I0
I0
tp1060
a(I1
I1
I1
I1
I0
I1
I1
I1
I1
I0
I1
I0
I1
I0
I1
I0
I0
I0
I1
I1
I1
I1
I0
I0
I1
I1
I1
I1
I1
I0
I0
I0
I0
I1
I0
I0
tp1061
a(I1
I1
I0
I1
I0
I0
I1
I1
I1
I0
I1
I1
I0
I1
I1
I1
I1
I1
I0
I0
I0
I1
I0
I0
I1
I1
I1
I1
I0
I1
I1
I1
I0
I1
I0
I0
tp1062
a(I1
I0
I1
I1
I1
I1
I1
I1
I1
I1
I1
I0
I0
I0
I1
I1
I0
I0
I1
I1
I0
I1
I0
I0
I0
I1
I1
I1
I1
I0
I0
I1
I1
I1
I0
I0
tp1063
a(I1
I1
I1
I1
I0
I0
I1
I1
I1
I1
I1
I1
I1
I1
I1
I1
I0
I0
I1
I0
I0
I1
I0
I1
I0
I1
I1
I0
I1
I1
I1
I1
I1
I1
I0
I1
tp1064
a(I1
I1
I1
I0
I0
I0
I0
I1
I1
I0
I0
I0
I1
I1
I1
I1
I0
I0
I1
I0
I0
I0
I0
I0
I0
I0
I0
I1
I1
I0
I1
I0
I0
I0
I0
I0
tp1065
a(I1
I0
I1
I1
I1
I1
I0
I1
I1
I0
I0
I0
I1
I0
I1
I1
I0
I0
I1
I0
I1
I1
I0
I0
I0
I0
I0
I1
I0
I0
I1
I0
I0
I1
I0
I1
tp1066
a(I1
I1
I1
I1
I0
I0
I0
I1
I1
I1
I1
I1
I0
I1
I1
I1
I0
I0
I1
I0
I1
I1
I1
I0
I0
I1
I1
I1
I1
I0
I0
I0
I0
I0
I0
I0
tp1067
a(I1
I0
I1
I1
I1
I0
I1
I1
I1
I0
I1
I1
I0
I1
I1
I0
I0
I0
I0
I0
I0
I1
I0
I0
I0
I1
I1
I0
I1
I0
I1
I1
I1
I1
I0
I0
tp1068
a(I1
I1
I1
I0
I1
I1
I1
I1
I1
I1
I1
I1
I0
I1
I1
I1
I1
I0
I1
I0
I0
I0
I0
I0
I1
I1
I1
I0
I0
I0
I0
I1
I0
I0
I0
I0
tp1069
a(I1
I1
I1
I1
I0
I0
I1
I0
I1
I0
I0
I1
I0
I1
I1
I1
I0
I0
I1
I1
I1
I1
I0
I0
I0
I0
I0
I1
I1
I1
I0
I0
I0
I0
I1
I0
tp1070
a(I1
I1
I0
I1
I0
I0
I1
I0
I1
I0
I1
I0
I1
I0
I1
I0
I0
I0
I0
I0
I0
I1
I0
I0
I1
I1
I1
I0
I0
I1
I1
I0
I0
I1
I0
I1
tp1071
a(I1
I1
I1
I1
I1
I1
I0
I1
I1
I0
I1
I1
I1
I1
I1
I0
I0
I1
I1
I0
I0
I1
I0
I0
I0
I1
I1
I1
I1
I1
I1
I0
I0
I1
I0
I0
tp1072
a(I0
I1
I1
I0
I0
I1
I0
I0
I1
I0
I1
I1
I1
I0
I0
I1
I0
I0
I0
I0
I0
I1
I1
I1
I0
I1
I1
I0
I1
I1
I1
I0
I0
I0
I0
I0
tp1073
a(I1
I1
I0
I1
I0
I0
I1
I1
I1
I1
I1
I1
I0
I1
I0
I1
I0
I0
I0
I0
I0
I1
I0
I1
I1
I1
I1
I0
I1
I1
I1
I0
I0
I0
I0
I0
tp1074
a(I1
I1
I0
I1
I0
I0
I1
I1
I1
I0
I1
I1
I1
I1
I0
I0
I0
I0
I1
I1
I1
I1
I0
I1
I0
I0
I0
I1
I0
I1
I0
I0
I0
I1
I0
I1
tp1075
a(I1
I1
I1
I1
I0
I0
I1
I1
I0
I0
I1
I1
I1
I0
I1
I1
I0
I0
I1
I0
I0
I1
I0
I0
I0
I1
I1
I1
I0
I0
I1
I1
I1
I1
I1
I1
tp1076
a(I1
I1
I0
I1
I1
I0
I1
I1
I1
I0
I1
I1
I1
I1
I1
I0
I1
I0
I1
I0
I1
I1
I1
I0
I0
I0
I0
I1
I0
I1
I1
I0
I0
I0
I0
I0
tp1077
a(I1
I1
I0
I0
I0
I0
I1
I1
I1
I1
I1
I1
I1
I1
I1
I1
I0
I0
I1
I0
I1
I1
I1
I0
I1
I1
I0
I0
I1
I0
I0
I0
I0
I1
I1
I0
tp1078
a(I0
I0
I0
I1
I0
I0
I1
I1
I1
I0
I1
I1
I1
I1
I1
I0
I1
I0
I1
I1
I1
I0
I0
I1
I0
I1
I1
I1
I1
I1
I0
I0
I0
I1
I0
I1
tp1079
a(I1
I1
I1
I1
I1
I1
I1
I1
I1
I1
I1
I0
I1
I1
I1
I1
I0
I0
I1
I0
I0
I1
I0
I0
I0
I1
I0
I1
I0
I0
I0
I1
I0
I1
I0
I1
tp1080
a(I1
I1
I1
I1
I1
I0
I0
I1
I1
I0
I1
I1
I1
I1
I0
I1
I1
I1
I1
I0
I0
I0
I0
I0
I1
I1
I0
I1
I1
I0
I0
I0
I0
I1
I0
I0
tp1081
a(I1
I1
I1
I1
I0
I0
I0
I1
I1
I1
I0
I0
I1
I1
I0
I0
I1
I0
I1
I1
I0
I1
I1
I0
I1
I0
I0
I1
I1
I0
I0
I0
I0
I1
I0
I1
tp1082
a(I1
I1
I1
I0
I0
I0
I1
I1
I1
I1
I1
I0
I1
I1
I1
I0
I0
I0
I0
I0
I0
I1
I0
I0
I1
I1
I1
I1
I0
I0
I1
I0
I0
I0
I0
I0
tp1083
a(I0
I1
I1
I1
I0
I0
I1
I1
I1
I0
I1
I1
I1
I1
I1
I1
I1
I0
I1
I0
I0
I1
I0
I0
I0
I1
I1
I1
I0
I0
I1
I0
I0
I1
I1
I0
tp1084
a(I0
I0
I1
I1
I0
I0
I1
I1
I1
I0
I1
I1
I1
I1
I1
I0
I0
I0
I1
I0
I0
I0
I1
I0
I1
I1
I1
I0
I1
I1
I0
I1
I0
I0
I0
I0
tp1085
a(I1
I0
I1
I1
I0
I0
I1
I1
I1
I1
I0
I0
I0
I1
I1
I1
I0
I0
I1
I0
I1
I0
I0
I0
I1
I1
I1
I1
I0
I1
I1
I1
I0
I1
I0
I0
tp1086
a(I1
I1
I1
I1
I0
I0
I0
I1
I1
I1
I1
I1
I1
I1
I1
I0
I0
I0
I1
I0
I0
I0
I0
I0
I1
I0
I0
I1
I0
I0
I1
I0
I1
I1
I0
I0
tp1087
a(I1
I1
I0
I1
I0
I0
I0
I1
I1
I1
I1
I0
I1
I1
I1
I0
I1
I0
I1
I0
I0
I1
I0
I1
I1
I1
I1
I0
I1
I1
I0
I0
I0
I1
I1
I1
tp1088
a(I0
I0
I0
I1
I0
I0
I0
I1
I0
I1
I1
I1
I1
I1
I0
I1
I1
I0
I0
I0
I1
I0
I0
I0
I1
I0
I0
I0
I0
I1
I1
I0
I0
I0
I0
I0
tp1089
a(I1
I1
I1
I1
I0
I0
I1
I1
I0
I0
I1
I0
I0
I1
I0
I0
I0
I0
I1
I0
I0
I0
I0
I1
I1
I0
I1
I0
I0
I1
I1
I0
I1
I1
I0
I0
tp1090
a(I1
I1
I1
I1
I0
I0
I1
I1
I1
I0
I1
I1
I1
I1
I1
I1
I0
I0
I0
I0
I0
I0
I0
I0
I0
I1
I1
I1
I0
I1
I1
I0
I0
I1
I0
I0
tp1091
a(I1
I1
I1
I1
I0
I0
I1
I1
I1
I0
I0
I0
I1
I1
I1
I1
I0
I0
I0
I0
I0
I1
I0
I1
I1
I1
I1
I0
I1
I0
I0
I1
I0
I1
I0
I0
tp1092
a(I1
I1
I1
I1
I0
I0
I1
I1
I1
I0
I0
I0
I1
I1
I1
I1
I0
I0
I1
I0
I0
I1
I1
I0
I0
I0
I1
I1
I1
I1
I1
I0
I0
I1
I0
I0
tp1093
a(I1
I1
I0
I1
I1
I1
I1
I0
I1
I0
I1
I0
I1
I1
I1
I1
I1
I0
I0
I0
I1
I1
I1
I0
I1
I1
I1
I1
I1
I1
I1
I0
I0
I1
I1
I0
tp1094
a(I1
I0
I0
I0
I0
I0
I0
I1
I1
I1
I1
I1
I1
I0
I1
I1
I1
I0
I1
I0
I0
I0
I0
I0
I1
I0
I1
I1
I1
I0
I0
I0
I1
I1
I1
I0
tp1095
a(I1
I0
I0
I1
I1
I0
I0
I1
I1
I1
I1
I1
I0
I1
I1
I1
I1
I0
I1
I0
I0
I0
I1
I0
I0
I0
I0
I0
I1
I0
I1
I0
I0
I1
I0
I0
tp1096
a(I1
I1
I1
I0
I0
I0
I1
I1
I0
I0
I1
I1
I1
I1
I1
I0
I0
I0
I0
I0
I1
I1
I0
I1
I1
I1
I1
I1
I1
I1
I0
I0
I0
I1
I0
I1
tp1097
a(I0
I1
I0
I1
I1
I0
I1
I0
I1
I1
I1
I1
I1
I1
I1
I1
I0
I0
I1
I0
I0
I1
I1
I0
I0
I1
I0
I1
I0
I1
I1
I0
I0
I1
I0
I0
tp1098
a(I1
I1
I1
I1
I0
I0
I0
I1
I1
I0
I1
I1
I1
I0
I1
I1
I0
I0
I0
I0
I0
I1
I0
I1
I1
I1
I1
I0
I0
I1
I1
I1
I0
I0
I1
I1
tp1099
a(I1
I1
I1
I1
I0
I0
I1
I1
I0
I1
I1
I1
I1
I1
I1
I1
I1
I0
I1
I1
I0
I1
I1
I0
I1
I1
I1
I1
I1
I0
I1
I1
I0
I1
I1
I0
tp1100
a(I1
I1
I1
I1
I0
I1
I1
I1
I1
I0
I1
I1
I0
I1
I1
I0
I0
I0
I1
I0
I0
I0
I0
I0
I0
I1
I0
I1
I1
I0
I1
I0
I0
I1
I1
I0
tp1101
a(I0
I1
I0
I0
I1
I0
I1
I1
I1
I0
I1
I1
I1
I1
I1
I1
I0
I0
I1
I0
I0
I0
I0
I0
I1
I1
I1
I0
I1
I1
I0
I0
I0
I1
I0
I1
tp1102
a(I1
I1
I1
I1
I1
I0
I0
I1
I1
I0
I0
I0
I0
I1
I1
I0
I0
I0
I0
I1
I0
I1
I0
I0
I1
I1
I1
I1
I1
I0
I1
I0
I0
I1
I0
I0
tp1103
a(I1
I0
I1
I1
I0
I0
I1
I1
I1
I1
I1
I1
I1
I1
I1
I1
I1
I0
I1
I0
I0
I1
I1
I0
I0
I0
I0
I0
I1
I0
I1
I0
I0
I1
I0
I0
tp1104
a(I1
I1
I1
I1
I0
I0
I0
I1
I1
I1
I1
I0
I1
I1
I1
I1
I0
I0
I1
I1
I1
I1
I1
I1
I1
I1
I0
I1
I0
I1
I1
I0
I0
I1
I0
I0
tp1105
a(I1
I1
I1
I1
I0
I0
I1
I1
I1
I0
I1
I1
I1
I1
I0
I0
I1
I0
I1
I0
I0
I1
I0
I1
I1
I1
I1
I1
I0
I1
I1
I1
I0
I0
I0
I0
tp1106
a(I0
I1
I1
I1
I0
I0
I1
I0
I1
I0
I1
I1
I0
I1
I0
I0
I0
I0
I1
I1
I1
I1
I0
I1
I1
I1
I1
I1
I1
I0
I0
I0
I0
I0
I0
I0
tp1107
a(I1
I1
I1
I1
I0
I0
I0
I1
I1
I1
I1
I1
I1
I1
I1
I0
I0
I0
I1
I0
I0
I0
I0
I0
I1
I0
I0
I1
I0
I0
I1
I0
I1
I1
I0
I0
tp1108
a(I1
I1
I1
I1
I1
I1
I1
I1
I1
I1
I0
I0
I1
I1
I1
I1
I0
I0
I1
I0
I1
I1
I1
I1
I1
I0
I0
I0
I1
I1
I1
I0
I0
I0
I0
I1
tp1109
a(I0
I1
I0
I1
I1
I0
I1
I0
I1
I1
I1
I1
I1
I1
I1
I1
I0
I0
I1
I0
I0
I1
I1
I0
I0
I1
I0
I1
I0
I1
I1
I0
I0
I1
I0
I0
tp1110
a(I1
I1
I1
I1
I0
I0
I1
I1
I1
I0
I0
I0
I1
I1
I1
I1
I0
I0
I1
I0
I0
I1
I1
I0
I0
I0
I1
I1
I1
I1
I1
I0
I0
I1
I0
I0
tp1111
a(I1
I1
I1
I1
I0
I0
I1
I1
I0
I0
I1
I0
I0
I1
I0
I0
I0
I0
I1
I0
I0
I0
I0
I1
I1
I0
I1
I0
I0
I1
I1
I0
I1
I1
I0
I0
tp1112
a(I1
I1
I1
I1
I0
I0
I1
I1
I1
I0
I1
I1
I1
I1
I1
I1
I0
I0
I0
I0
I0
I0
I0
I0
I0
I1
I1
I1
I0
I1
I1
I0
I0
I1
I0
I0
tp1113
a(I1
I1
I1
I1
I0
I1
I1
I0
I1
I1
I1
I1
I1
I1
I1
I1
I1
I1
I1
I0
I1
I1
I1
I0
I1
I0
I1
I1
I0
I1
I1
I1
I0
I1
I0
I1
tp1114
a(I1
I1
I1
I1
I1
I0
I1
I1
I1
I1
I1
I1
I0
I0
I1
I0
I0
I0
I0
I0
I0
I1
I1
I1
I1
I0
I1
I1
I0
I0
I1
I0
I0
I1
I1
I0
tp1115
a(I1
I0
I1
I0
I0
I0
I1
I1
I0
I0
I0
I0
I1
I0
I1
I0
I1
I1
I1
I1
I1
I1
I0
I1
I0
I1
I0
I1
I0
I0
I0
I0
I0
I1
I0
I0
tp1116
a(I1
I1
I1
I1
I0
I1
I1
I0
I1
I0
I1
I1
I1
I1
I1
I1
I0
I0
I1
I0
I0
I0
I0
I1
I1
I1
I1
I1
I1
I0
I1
I0
I0
I1
I1
I0
tp1117
a(I1
I1
I1
I1
I1
I1
I0
I1
I1
I1
I1
I1
I1
I1
I0
I1
I0
I0
I1
I0
I0
I1
I1
I1
I1
I1
I1
I1
I1
I1
I1
I1
I0
I1
I1
I0
tp1118
a(I1
I1
I1
I1
I1
I0
I1
I1
I1
I1
I1
I0
I1
I1
I1
I0
I0
I0
I1
I1
I1
I1
I0
I0
I1
I1
I1
I1
I1
I1
I1
I0
I0
I1
I0
I0
tp1119
a(I1
I1
I1
I0
I0
I0
I1
I1
I1
I1
I1
I1
I1
I1
I1
I0
I0
I0
I1
I1
I1
I0
I0
I1
I1
I1
I1
I1
I1
I0
I1
I0
I0
I0
I0
I0
tp1120
a(I1
I1
I0
I1
I0
I1
I1
I1
I1
I1
I1
I0
I1
I1
I1
I1
I1
I0
I1
I0
I0
I1
I1
I1
I1
I1
I1
I1
I0
I1
I0
I0
I0
I0
I0
I0
tp1121
a(I1
I0
I1
I1
I1
I1
I1
I1
I1
I1
I1
I1
I1
I1
I1
I0
I0
I0
I1
I0
I1
I1
I0
I0
I0
I0
I0
I1
I0
I0
I0
I0
I0
I0
I0
I0
tp1122
a(I1
I1
I0
I1
I0
I0
I1
I1
I1
I0
I1
I1
I1
I0
I1
I1
I0
I0
I0
I0
I0
I1
I0
I0
I1
I1
I1
I1
I1
I0
I1
I0
I0
I1
I0
I0
tp1123
a(I1
I0
I1
I1
I0
I0
I0
I1
I0
I1
I1
I1
I1
I1
I0
I0
I0
I0
I0
I0
I0
I1
I1
I0
I0
I1
I1
I1
I0
I1
I1
I0
I0
I1
I1
I0
tp1124
a(I1
I1
I1
I0
I0
I0
I1
I1
I0
I1
I1
I0
I1
I1
I1
I1
I1
I0
I0
I0
I0
I0
I0
I0
I0
I0
I0
I1
I0
I1
I1
I0
I0
I1
I0
I1
tp1125
a(I1
I1
I1
I1
I1
I0
I1
I1
I1
I1
I1
I1
I0
I1
I1
I1
I0
I0
I1
I0
I0
I1
I0
I0
I1
I1
I1
I1
I0
I1
I0
I0
I0
I0
I0
I0
tp1126
a(I1
I1
I1
I1
I0
I0
I1
I0
I1
I1
I1
I1
I0
I1
I1
I1
I1
I1
I1
I1
I0
I1
I0
I0
I1
I1
I1
I1
I1
I0
I1
I0
I1
I1
I1
I0
tp1127
a(I1
I1
I0
I1
I0
I0
I1
I1
I1
I1
I1
I1
I0
I1
I1
I1
I0
I0
I1
I0
I0
I0
I0
I0
I1
I1
I1
I1
I1
I0
I0
I0
I0
I1
I1
I0
tp1128
a(I1
I1
I1
I0
I0
I0
I1
I1
I1
I1
I0
I1
I1
I1
I1
I1
I0
I0
I1
I0
I0
I1
I0
I1
I1
I1
I1
I1
I1
I1
I1
I0
I0
I1
I0
I0
tp1129
a(I1
I1
I1
I1
I0
I0
I0
I1
I0
I1
I1
I1
I1
I0
I1
I1
I0
I0
I0
I0
I0
I0
I1
I0
I0
I1
I0
I1
I1
I1
I1
I0
I0
I1
I0
I0
tp1130
a(I1
I0
I1
I0
I0
I0
I1
I0
I1
I0
I0
I0
I1
I1
I1
I0
I0
I0
I1
I1
I0
I0
I0
I0
I1
I1
I0
I0
I0
I0
I1
I0
I0
I1
I0
I0
tp1131
a(I1
I1
I1
I1
I0
I0
I1
I1
I1
I0
I0
I1
I1
I0
I0
I0
I0
I0
I1
I0
I0
I1
I0
I0
I1
I1
I0
I0
I0
I0
I1
I0
I0
I0
I0
I0
tp1132
a(I1
I1
I1
I1
I0
I0
I1
I1
I1
I0
I1
I1
I1
I1
I1
I1
I0
I0
I0
I0
I0
I1
I0
I1
I1
I1
I0
I1
I0
I1
I1
I0
I0
I1
I1
I0
tp1133
a(I0
I0
I1
I1
I0
I0
I1
I1
I0
I1
I1
I1
I0
I0
I1
I1
I0
I0
I0
I0
I0
I1
I0
I1
I1
I0
I1
I0
I1
I1
I1
I0
I0
I1
I0
I0
tp1134
a(I1
I0
I1
I1
I1
I0
I1
I1
I1
I1
I1
I1
I1
I1
I1
I1
I0
I0
I1
I1
I1
I1
I0
I1
I1
I1
I1
I1
I0
I1
I0
I1
I0
I0
I0
I0
tp1135
a(I0
I0
I1
I1
I0
I0
I1
I1
I0
I1
I0
I1
I1
I1
I1
I1
I1
I0
I0
I0
I0
I1
I0
I0
I1
I1
I1
I0
I1
I0
I0
I0
I0
I1
I0
I0
tp1136
a(I1
I1
I1
I1
I1
I1
I1
I1
I1
I0
I0
I1
I1
I1
I0
I1
I1
I1
I1
I1
I0
I1
I0
I0
I1
I1
I0
I1
I0
I1
I1
I1
I0
I1
I0
I0
tp1137
a(I1
I0
I1
I0
I0
I0
I1
I0
I1
I0
I0
I0
I1
I1
I1
I0
I0
I0
I1
I1
I1
I1
I0
I1
I1
I1
I1
I0
I0
I0
I1
I0
I0
I1
I0
I0
tp1138
a(I1
I1
I1
I1
I0
I0
I0
I1
I1
I0
I0
I1
I1
I1
I1
I1
I0
I0
I1
I0
I1
I1
I1
I0
I1
I1
I1
I1
I1
I0
I1
I1
I0
I1
I1
I0
tp1139
a(I1
I1
I1
I1
I0
I0
I1
I0
I1
I0
I0
I1
I1
I1
I1
I0
I0
I0
I1
I0
I0
I1
I0
I1
I1
I1
I1
I1
I1
I0
I1
I0
I0
I1
I1
I0
tp1140
a(I1
I1
I1
I0
I0
I0
I1
I1
I1
I1
I0
I1
I1
I1
I1
I1
I0
I0
I1
I0
I0
I1
I0
I1
I1
I1
I1
I1
I1
I1
I1
I0
I0
I1
I0
I0
tp1141
a(I1
I1
I1
I1
I0
I0
I1
I1
I1
I0
I1
I1
I1
I1
I1
I1
I0
I0
I0
I0
I0
I1
I0
I1
I1
I1
I0
I1
I0
I1
I1
I0
I0
I1
I1
I0
tp1142
a(I0
I1
I1
I1
I0
I0
I1
I1
I1
I1
I0
I1
I1
I1
I1
I1
I1
I0
I1
I0
I0
I1
I0
I1
I0
I1
I1
I0
I0
I1
I0
I1
I0
I1
I0
I0
tp1143
a(I1
I0
I0
I1
I0
I1
I1
I1
I1
I1
I0
I0
I1
I1
I1
I1
I1
I1
I1
I1
I0
I0
I0
I1
I1
I1
I0
I0
I0
I0
I0
I1
I0
I0
I0
I0
tp1144
a(I1
I1
I1
I1
I1
I0
I1
I1
I1
I0
I1
I1
I1
I1
I1
I0
I0
I0
I1
I1
I0
I0
I0
I1
I0
I1
I1
I1
I1
I1
I0
I1
I1
I1
I1
I0
tp1145
a(I1
I1
I0
I1
I1
I0
I1
I1
I1
I0
I0
I0
I1
I1
I0
I1
I0
I0
I1
I0
I0
I1
I1
I0
I1
I1
I1
I0
I1
I1
I1
I0
I0
I0
I0
I0
tp1146
a(I1
I1
I1
I1
I0
I0
I1
I1
I1
I1
I1
I1
I0
I1
I1
I1
I0
I0
I1
I0
I0
I1
I1
I0
I1
I1
I1
I1
I1
I0
I0
I1
I0
I0
I0
I0
tp1147
a(I1
I1
I0
I1
I0
I0
I1
I1
I1
I0
I0
I1
I1
I1
I1
I1
I1
I1
I1
I0
I0
I1
I1
I0
I1
I1
I1
I1
I0
I0
I1
I0
I0
I0
I0
I0
tp1148
a(I1
I1
I1
I1
I0
I0
I1
I1
I1
I1
I0
I1
I1
I1
I1
I0
I1
I0
I1
I0
I0
I1
I0
I1
I1
I1
I1
I1
I0
I1
I1
I0
I0
I0
I0
I1
tp1149
a(I1
I1
I1
I1
I1
I0
I1
I1
I1
I1
I1
I1
I0
I0
I1
I1
I1
I0
I1
I0
I0
I0
I0
I0
I1
I0
I1
I0
I1
I1
I1
I1
I1
I1
I1
I0
tp1150
a(I0
I1
I1
I1
I0
I0
I1
I1
I1
I1
I1
I1
I1
I1
I1
I1
I1
I1
I1
I0
I1
I1
I0
I0
I1
I1
I1
I1
I1
I0
I1
I0
I0
I1
I0
I0
tp1151
a(I0
I1
I1
I0
I0
I0
I1
I1
I1
I1
I0
I1
I1
I1
I1
I0
I0
I0
I1
I0
I0
I1
I1
I0
I0
I0
I0
I1
I1
I1
I0
I0
I0
I1
I1
I0
tp1152
a(I1
I1
I1
I1
I1
I0
I0
I1
I1
I1
I1
I0
I1
I1
I1
I0
I0
I0
I1
I0
I0
I1
I0
I1
I0
I1
I0
I1
I0
I0
I0
I0
I0
I1
I0
I0
tp1153
a(I1
I1
I1
I1
I0
I0
I1
I1
I1
I1
I1
I1
I1
I0
I1
I1
I0
I0
I1
I0
I0
I1
I0
I1
I1
I1
I1
I1
I1
I1
I1
I0
I0
I1
I0
I1
tp1154
a(I1
I1
I0
I1
I1
I0
I1
I0
I1
I1
I1
I0
I1
I1
I1
I1
I0
I0
I1
I0
I0
I0
I1
I0
I1
I1
I1
I1
I1
I1
I1
I0
I0
I0
I0
I1
tp1155
a(I1
I1
I0
I1
I0
I0
I1
I1
I1
I1
I1
I1
I0
I0
I1
I1
I0
I0
I1
I1
I1
I1
I0
I0
I1
I1
I1
I1
I1
I0
I0
I0
I0
I1
I1
I0
tp1156
a(I1
I0
I1
I1
I0
I0
I1
I0
I1
I0
I1
I1
I1
I1
I1
I1
I1
I1
I1
I0
I0
I1
I1
I0
I0
I1
I1
I1
I1
I1
I1
I0
I0
I1
I1
I0
tp1157
a(I1
I1
I1
I1
I1
I1
I1
I1
I1
I1
I1
I1
I1
I1
I0
I0
I0
I0
I0
I1
I0
I1
I1
I0
I0
I0
I0
I1
I1
I1
I0
I0
I0
I1
I1
I0
tp1158
a(I0
I1
I1
I1
I0
I0
I1
I1
I1
I1
I1
I1
I1
I1
I1
I0
I1
I1
I1
I0
I0
I1
I0
I0
I0
I1
I1
I1
I1
I0
I0
I0
I0
I0
I0
I0
tp1159
a(I1
I0
I1
I1
I0
I0
I1
I1
I0
I0
I0
I1
I1
I1
I1
I1
I0
I1
I1
I1
I0
I1
I0
I0
I0
I0
I1
I1
I1
I0
I0
I0
I0
I1
I1
I0
tp1160
a(I0
I1
I1
I1
I0
I0
I1
I1
I1
I1
I1
I1
I1
I1
I1
I0
I1
I1
I1
I0
I0
I1
I0
I0
I0
I1
I1
I1
I1
I0
I0
I0
I0
I0
I0
I0
tp1161
a(I1
I1
I1
I1
I0
I0
I0
I1
I0
I1
I1
I1
I1
I1
I1
I1
I1
I1
I0
I0
I0
I1
I0
I1
I0
I1
I1
I0
I0
I1
I0
I0
I0
I1
I0
I0
tp1162
a(I1
I1
I1
I1
I1
I1
I1
I1
I1
I1
I1
I1
I1
I1
I1
I1
I0
I0
I1
I0
I0
I0
I0
I1
I1
I1
I1
I1
I1
I0
I0
I1
I1
I0
I1
I0
tp1163
a(I1
I1
I1
I0
I0
I1
I1
I1
I1
I1
I0
I0
I0
I1
I1
I1
I0
I0
I0
I0
I0
I1
I0
I0
I0
I1
I1
I1
I0
I1
I0
I0
I0
I0
I1
I1
tp1164
a(I1
I1
I1
I0
I0
I0
I1
I1
I1
I1
I1
I1
I1
I1
I1
I1
I0
I0
I1
I1
I0
I1
I0
I0
I1
I1
I0
I0
I1
I0
I0
I0
I0
I1
I0
I0
tp1165
a(I1
I1
I1
I1
I0
I1
I1
I1
I1
I1
I1
I1
I1
I1
I0
I0
I1
I0
I1
I0
I0
I1
I0
I0
I0
I1
I1
I0
I1
I0
I0
I0
I0
I1
I1
I0
tp1166
a(I1
I1
I1
I0
I1
I0
I1
I1
I1
I0
I1
I0
I0
I0
I0
I1
I0
I0
I1
I0
I0
I1
I0
I0
I1
I1
I1
I1
I0
I0
I0
I0
I0
I0
I1
I0
tp1167
a(I1
I1
I1
I0
I0
I0
I1
I0
I1
I1
I1
I0
I0
I1
I1
I1
I0
I0
I1
I0
I0
I1
I0
I0
I1
I1
I1
I1
I1
I1
I1
I0
I0
I1
I1
I1
tp1168
a(I1
I1
I1
I1
I1
I0
I1
I0
I1
I0
I0
I1
I1
I1
I1
I1
I0
I0
I1
I0
I1
I1
I0
I0
I1
I1
I0
I1
I0
I1
I1
I1
I0
I1
I0
I0
tp1169
a(I1
I0
I1
I0
I0
I0
I0
I0
I1
I1
I1
I1
I1
I1
I1
I0
I1
I0
I1
I0
I0
I1
I0
I1
I1
I1
I0
I1
I0
I1
I1
I1
I0
I1
I0
I1
tp1170
a(I1
I1
I1
I1
I1
I0
I1
I1
I1
I0
I0
I1
I1
I1
I0
I0
I0
I0
I1
I0
I0
I1
I0
I1
I0
I1
I1
I1
I0
I0
I1
I1
I0
I1
I0
I0
tp1171
a(I0
I1
I0
I1
I0
I0
I1
I1
I1
I1
I1
I1
I1
I1
I1
I1
I0
I0
I1
I0
I0
I1
I0
I1
I0
I1
I1
I1
I0
I1
I0
I0
I0
I1
I0
I0
tp1172
a(I0
I1
I1
I1
I0
I0
I1
I1
I0
I1
I1
I1
I0
I1
I0
I0
I0
I0
I1
I1
I0
I1
I0
I0
I1
I1
I1
I0
I0
I1
I1
I0
I0
I1
I0
I1
tp1173
a(I1
I1
I1
I1
I0
I0
I1
I1
I0
I0
I1
I1
I1
I0
I1
I1
I0
I0
I1
I0
I0
I1
I1
I1
I0
I1
I1
I1
I0
I1
I1
I1
I0
I0
I0
I0
tp1174
a(I1
I1
I1
I1
I0
I0
I1
I0
I0
I1
I1
I1
I0
I1
I1
I1
I0
I0
I1
I0
I1
I1
I0
I0
I1
I1
I0
I1
I1
I1
I1
I0
I0
I1
I1
I0
tp1175
a(I1
I1
I1
I1
I0
I1
I1
I1
I1
I0
I1
I1
I1
I1
I1
I0
I0
I0
I0
I0
I0
I1
I0
I0
I1
I1
I1
I1
I0
I0
I1
I0
I0
I0
I0
I0
tp1176
a(I1
I1
I1
I1
I0
I0
I0
I1
I1
I0
I1
I1
I0
I1
I0
I1
I1
I0
I1
I0
I0
I1
I1
I1
I1
I1
I1
I0
I1
I1
I1
I0
I0
I1
I0
I1
tp1177
a(I1
I1
I1
I1
I0
I0
I1
I1
I0
I0
I1
I1
I1
I0
I1
I1
I0
I0
I1
I1
I1
I1
I0
I0
I1
I1
I1
I1
I0
I0
I0
I0
I0
I0
I0
I0
tp1178
a(I1
I1
I1
I1
I1
I1
I0
I1
I1
I0
I0
I1
I1
I0
I1
I1
I1
I0
I0
I0
I0
I1
I1
I0
I0
I1
I1
I1
I1
I0
I1
I0
I1
I0
I1
I0
tp1179
a(I1
I1
I0
I1
I0
I0
I1
I1
I0
I0
I1
I1
I0
I0
I0
I1
I1
I0
I1
I0
I0
I1
I1
I0
I1
I1
I1
I1
I1
I1
I1
I1
I0
I1
I0
I0
tp1180
a(I1
I1
I1
I0
I0
I0
I1
I0
I0
I1
I1
I1
I1
I1
I1
I1
I1
I0
I1
I1
I1
I1
I0
I0
I1
I1
I1
I0
I1
I1
I1
I0
I0
I1
I0
I0
tp1181
a(I1
I1
I1
I1
I0
I1
I0
I1
I1
I1
I1
I0
I1
I0
I1
I1
I0
I1
I1
I1
I0
I1
I1
I0
I0
I1
I1
I1
I1
I0
I1
I0
I1
I1
I1
I0
tp1182
a(I0
I1
I1
I1
I0
I0
I1
I0
I1
I0
I0
I0
I0
I1
I0
I1
I1
I0
I0
I0
I0
I1
I0
I0
I1
I1
I0
I1
I0
I1
I0
I1
I0
I1
I0
I0
tp1183
a(I1
I1
I1
I1
I0
I0
I1
I0
I0
I0
I0
I0
I0
I1
I1
I1
I0
I1
I0
I0
I0
I1
I0
I0
I1
I1
I1
I1
I0
I0
I0
I1
I1
I1
I0
I0
tp1184
a(I1
I1
I0
I1
I0
I0
I0
I0
I1
I0
I0
I1
I1
I1
I1
I1
I0
I0
I1
I0
I0
I1
I1
I0
I1
I1
I1
I1
I1
I0
I1
I0
I0
I1
I0
I0
tp1185
a(I1
I0
I1
I1
I1
I0
I1
I1
I1
I1
I1
I1
I1
I1
I1
I1
I0
I0
I0
I0
I0
I1
I0
I1
I1
I1
I1
I0
I0
I1
I1
I0
I0
I1
I0
I1
tp1186
a(I0
I0
I0
I1
I0
I1
I1
I1
I1
I0
I1
I1
I1
I1
I1
I1
I0
I0
I1
I0
I0
I0
I0
I0
I0
I1
I1
I0
I0
I1
I0
I0
I0
I0
I0
I0
tp1187
a(I1
I0
I0
I0
I1
I0
I0
I1
I1
I0
I1
I1
I1
I0
I1
I1
I0
I0
I1
I0
I1
I1
I0
I1
I0
I1
I1
I1
I0
I1
I0
I1
I1
I1
I0
I0
tp1188
a(I1
I1
I1
I0
I0
I0
I1
I1
I1
I1
I1
I1
I0
I1
I1
I1
I0
I0
I1
I1
I1
I0
I0
I1
I0
I0
I1
I1
I0
I0
I1
I1
I0
I1
I0
I0
tp1189
a(I1
I1
I1
I1
I0
I0
I1
I1
I0
I0
I1
I1
I1
I1
I1
I0
I0
I0
I1
I1
I1
I0
I0
I0
I1
I0
I1
I0
I1
I1
I1
I0
I0
I1
I1
I0
tp1190
a(I0
I1
I1
I1
I0
I0
I1
I1
I1
I1
I1
I1
I1
I1
I1
I1
I1
I0
I1
I0
I0
I1
I0
I0
I0
I1
I1
I1
I0
I1
I0
I0
I0
I1
I1
I0
tp1191
a(I1
I1
I1
I1
I0
I0
I1
I1
I1
I1
I1
I0
I1
I1
I1
I1
I0
I1
I1
I0
I0
I1
I0
I0
I0
I1
I1
I1
I0
I0
I1
I0
I0
I0
I0
I0
tp1192
a(I1
I1
I1
I1
I0
I0
I1
I1
I1
I0
I0
I0
I1
I1
I1
I0
I0
I0
I1
I0
I1
I1
I1
I1
I1
I1
I0
I0
I1
I0
I1
I0
I0
I1
I1
I0
tp1193
a(I1
I1
I1
I1
I0
I0
I1
I1
I1
I0
I1
I0
I1
I1
I1
I0
I0
I0
I1
I0
I0
I1
I0
I1
I1
I0
I0
I1
I1
I1
I1
I1
I1
I1
I0
I0
tp1194
a.